ARM GAS  /tmp/ccSfSgjJ.s 			page 1


   1              		.cpu cortex-m4
   2              		.eabi_attribute 27, 1
   3              		.eabi_attribute 28, 1
   4              		.eabi_attribute 20, 1
   5              		.eabi_attribute 21, 1
   6              		.eabi_attribute 23, 3
   7              		.eabi_attribute 24, 1
   8              		.eabi_attribute 25, 1
   9              		.eabi_attribute 26, 1
  10              		.eabi_attribute 30, 1
  11              		.eabi_attribute 34, 1
  12              		.eabi_attribute 18, 4
  13              		.file	"stm32f4xx_hal_dac.c"
  14              		.text
  15              	.Ltext0:
  16              		.cfi_sections	.debug_frame
  17              		.section	.text.HAL_DAC_MspInit,"ax",%progbits
  18              		.align	1
  19              		.weak	HAL_DAC_MspInit
  20              		.arch armv7e-m
  21              		.syntax unified
  22              		.thumb
  23              		.thumb_func
  24              		.fpu fpv4-sp-d16
  26              	HAL_DAC_MspInit:
  27              	.LVL0:
  28              	.LFB132:
  29              		.file 1 "Drivers/STM32F4xx_HAL_Driver/Src/stm32f4xx_hal_dac.c"
   1:Drivers/STM32F4xx_HAL_Driver/Src/stm32f4xx_hal_dac.c **** /**
   2:Drivers/STM32F4xx_HAL_Driver/Src/stm32f4xx_hal_dac.c ****   ******************************************************************************
   3:Drivers/STM32F4xx_HAL_Driver/Src/stm32f4xx_hal_dac.c ****   * @file    stm32f4xx_hal_dac.c
   4:Drivers/STM32F4xx_HAL_Driver/Src/stm32f4xx_hal_dac.c ****   * @author  MCD Application Team
   5:Drivers/STM32F4xx_HAL_Driver/Src/stm32f4xx_hal_dac.c ****   * @brief   DAC HAL module driver.
   6:Drivers/STM32F4xx_HAL_Driver/Src/stm32f4xx_hal_dac.c ****   *         This file provides firmware functions to manage the following 
   7:Drivers/STM32F4xx_HAL_Driver/Src/stm32f4xx_hal_dac.c ****   *         functionalities of the Digital to Analog Converter (DAC) peripheral:
   8:Drivers/STM32F4xx_HAL_Driver/Src/stm32f4xx_hal_dac.c ****   *           + Initialization and de-initialization functions
   9:Drivers/STM32F4xx_HAL_Driver/Src/stm32f4xx_hal_dac.c ****   *           + IO operation functions
  10:Drivers/STM32F4xx_HAL_Driver/Src/stm32f4xx_hal_dac.c ****   *           + Peripheral Control functions
  11:Drivers/STM32F4xx_HAL_Driver/Src/stm32f4xx_hal_dac.c ****   *           + Peripheral State and Errors functions      
  12:Drivers/STM32F4xx_HAL_Driver/Src/stm32f4xx_hal_dac.c ****   *     
  13:Drivers/STM32F4xx_HAL_Driver/Src/stm32f4xx_hal_dac.c ****   *
  14:Drivers/STM32F4xx_HAL_Driver/Src/stm32f4xx_hal_dac.c ****   @verbatim      
  15:Drivers/STM32F4xx_HAL_Driver/Src/stm32f4xx_hal_dac.c ****   ==============================================================================
  16:Drivers/STM32F4xx_HAL_Driver/Src/stm32f4xx_hal_dac.c ****                       ##### DAC Peripheral features #####
  17:Drivers/STM32F4xx_HAL_Driver/Src/stm32f4xx_hal_dac.c ****   ==============================================================================
  18:Drivers/STM32F4xx_HAL_Driver/Src/stm32f4xx_hal_dac.c ****     [..]        
  19:Drivers/STM32F4xx_HAL_Driver/Src/stm32f4xx_hal_dac.c ****       *** DAC Channels ***
  20:Drivers/STM32F4xx_HAL_Driver/Src/stm32f4xx_hal_dac.c ****       ====================  
  21:Drivers/STM32F4xx_HAL_Driver/Src/stm32f4xx_hal_dac.c ****     [..]
  22:Drivers/STM32F4xx_HAL_Driver/Src/stm32f4xx_hal_dac.c ****     The device integrates two 12-bit Digital Analog Converters that can 
  23:Drivers/STM32F4xx_HAL_Driver/Src/stm32f4xx_hal_dac.c ****     be used independently or simultaneously (dual mode):
  24:Drivers/STM32F4xx_HAL_Driver/Src/stm32f4xx_hal_dac.c ****       (#) DAC channel1 with DAC_OUT1 (PA4) as output
  25:Drivers/STM32F4xx_HAL_Driver/Src/stm32f4xx_hal_dac.c ****       (#) DAC channel2 with DAC_OUT2 (PA5) as output
  26:Drivers/STM32F4xx_HAL_Driver/Src/stm32f4xx_hal_dac.c ****       
  27:Drivers/STM32F4xx_HAL_Driver/Src/stm32f4xx_hal_dac.c ****       *** DAC Triggers ***
  28:Drivers/STM32F4xx_HAL_Driver/Src/stm32f4xx_hal_dac.c ****       ====================
  29:Drivers/STM32F4xx_HAL_Driver/Src/stm32f4xx_hal_dac.c ****     [..]
ARM GAS  /tmp/ccSfSgjJ.s 			page 2


  30:Drivers/STM32F4xx_HAL_Driver/Src/stm32f4xx_hal_dac.c ****     Digital to Analog conversion can be non-triggered using DAC_TRIGGER_NONE
  31:Drivers/STM32F4xx_HAL_Driver/Src/stm32f4xx_hal_dac.c ****     and DAC_OUT1/DAC_OUT2 is available once writing to DHRx register. 
  32:Drivers/STM32F4xx_HAL_Driver/Src/stm32f4xx_hal_dac.c ****     [..] 
  33:Drivers/STM32F4xx_HAL_Driver/Src/stm32f4xx_hal_dac.c ****     Digital to Analog conversion can be triggered by:
  34:Drivers/STM32F4xx_HAL_Driver/Src/stm32f4xx_hal_dac.c ****       (#) External event: EXTI Line 9 (any GPIOx_Pin9) using DAC_TRIGGER_EXT_IT9.
  35:Drivers/STM32F4xx_HAL_Driver/Src/stm32f4xx_hal_dac.c ****           The used pin (GPIOx_Pin9) must be configured in input mode.
  36:Drivers/STM32F4xx_HAL_Driver/Src/stm32f4xx_hal_dac.c ****   
  37:Drivers/STM32F4xx_HAL_Driver/Src/stm32f4xx_hal_dac.c ****       (#) Timers TRGO: TIM2, TIM4, TIM5, TIM6, TIM7 and TIM8 
  38:Drivers/STM32F4xx_HAL_Driver/Src/stm32f4xx_hal_dac.c ****           (DAC_TRIGGER_T2_TRGO, DAC_TRIGGER_T4_TRGO...)
  39:Drivers/STM32F4xx_HAL_Driver/Src/stm32f4xx_hal_dac.c ****   
  40:Drivers/STM32F4xx_HAL_Driver/Src/stm32f4xx_hal_dac.c ****       (#) Software using DAC_TRIGGER_SOFTWARE
  41:Drivers/STM32F4xx_HAL_Driver/Src/stm32f4xx_hal_dac.c ****   
  42:Drivers/STM32F4xx_HAL_Driver/Src/stm32f4xx_hal_dac.c ****       *** DAC Buffer mode feature ***
  43:Drivers/STM32F4xx_HAL_Driver/Src/stm32f4xx_hal_dac.c ****       =============================== 
  44:Drivers/STM32F4xx_HAL_Driver/Src/stm32f4xx_hal_dac.c ****       [..] 
  45:Drivers/STM32F4xx_HAL_Driver/Src/stm32f4xx_hal_dac.c ****       Each DAC channel integrates an output buffer that can be used to 
  46:Drivers/STM32F4xx_HAL_Driver/Src/stm32f4xx_hal_dac.c ****       reduce the output impedance, and to drive external loads directly
  47:Drivers/STM32F4xx_HAL_Driver/Src/stm32f4xx_hal_dac.c ****       without having to add an external operational amplifier.
  48:Drivers/STM32F4xx_HAL_Driver/Src/stm32f4xx_hal_dac.c ****       To enable, the output buffer use  
  49:Drivers/STM32F4xx_HAL_Driver/Src/stm32f4xx_hal_dac.c ****       sConfig.DAC_OutputBuffer = DAC_OUTPUTBUFFER_ENABLE;
  50:Drivers/STM32F4xx_HAL_Driver/Src/stm32f4xx_hal_dac.c ****       [..]           
  51:Drivers/STM32F4xx_HAL_Driver/Src/stm32f4xx_hal_dac.c ****       (@) Refer to the device datasheet for more details about output 
  52:Drivers/STM32F4xx_HAL_Driver/Src/stm32f4xx_hal_dac.c ****           impedance value with and without output buffer.
  53:Drivers/STM32F4xx_HAL_Driver/Src/stm32f4xx_hal_dac.c ****             
  54:Drivers/STM32F4xx_HAL_Driver/Src/stm32f4xx_hal_dac.c ****        *** DAC wave generation feature ***
  55:Drivers/STM32F4xx_HAL_Driver/Src/stm32f4xx_hal_dac.c ****        =================================== 
  56:Drivers/STM32F4xx_HAL_Driver/Src/stm32f4xx_hal_dac.c ****        [..]     
  57:Drivers/STM32F4xx_HAL_Driver/Src/stm32f4xx_hal_dac.c ****        Both DAC channels can be used to generate
  58:Drivers/STM32F4xx_HAL_Driver/Src/stm32f4xx_hal_dac.c ****          (#) Noise wave 
  59:Drivers/STM32F4xx_HAL_Driver/Src/stm32f4xx_hal_dac.c ****          (#) Triangle wave
  60:Drivers/STM32F4xx_HAL_Driver/Src/stm32f4xx_hal_dac.c ****             
  61:Drivers/STM32F4xx_HAL_Driver/Src/stm32f4xx_hal_dac.c ****        *** DAC data format ***
  62:Drivers/STM32F4xx_HAL_Driver/Src/stm32f4xx_hal_dac.c ****        =======================
  63:Drivers/STM32F4xx_HAL_Driver/Src/stm32f4xx_hal_dac.c ****        [..]   
  64:Drivers/STM32F4xx_HAL_Driver/Src/stm32f4xx_hal_dac.c ****        The DAC data format can be:
  65:Drivers/STM32F4xx_HAL_Driver/Src/stm32f4xx_hal_dac.c ****          (#) 8-bit right alignment using DAC_ALIGN_8B_R
  66:Drivers/STM32F4xx_HAL_Driver/Src/stm32f4xx_hal_dac.c ****          (#) 12-bit left alignment using DAC_ALIGN_12B_L
  67:Drivers/STM32F4xx_HAL_Driver/Src/stm32f4xx_hal_dac.c ****          (#) 12-bit right alignment using DAC_ALIGN_12B_R
  68:Drivers/STM32F4xx_HAL_Driver/Src/stm32f4xx_hal_dac.c ****   
  69:Drivers/STM32F4xx_HAL_Driver/Src/stm32f4xx_hal_dac.c ****        *** DAC data value to voltage correspondence ***  
  70:Drivers/STM32F4xx_HAL_Driver/Src/stm32f4xx_hal_dac.c ****        ================================================ 
  71:Drivers/STM32F4xx_HAL_Driver/Src/stm32f4xx_hal_dac.c ****        [..] 
  72:Drivers/STM32F4xx_HAL_Driver/Src/stm32f4xx_hal_dac.c ****        The analog output voltage on each DAC channel pin is determined
  73:Drivers/STM32F4xx_HAL_Driver/Src/stm32f4xx_hal_dac.c ****        by the following equation: 
  74:Drivers/STM32F4xx_HAL_Driver/Src/stm32f4xx_hal_dac.c ****        DAC_OUTx = VREF+ * DOR / 4095
  75:Drivers/STM32F4xx_HAL_Driver/Src/stm32f4xx_hal_dac.c ****        with  DOR is the Data Output Register
  76:Drivers/STM32F4xx_HAL_Driver/Src/stm32f4xx_hal_dac.c ****           VEF+ is the input voltage reference (refer to the device datasheet)
  77:Drivers/STM32F4xx_HAL_Driver/Src/stm32f4xx_hal_dac.c ****         e.g. To set DAC_OUT1 to 0.7V, use
  78:Drivers/STM32F4xx_HAL_Driver/Src/stm32f4xx_hal_dac.c ****           Assuming that VREF+ = 3.3V, DAC_OUT1 = (3.3 * 868) / 4095 = 0.7V
  79:Drivers/STM32F4xx_HAL_Driver/Src/stm32f4xx_hal_dac.c ****   
  80:Drivers/STM32F4xx_HAL_Driver/Src/stm32f4xx_hal_dac.c ****        *** DMA requests  ***
  81:Drivers/STM32F4xx_HAL_Driver/Src/stm32f4xx_hal_dac.c ****        =====================
  82:Drivers/STM32F4xx_HAL_Driver/Src/stm32f4xx_hal_dac.c ****        [..]    
  83:Drivers/STM32F4xx_HAL_Driver/Src/stm32f4xx_hal_dac.c ****        A DMA1 request can be generated when an external trigger (but not
  84:Drivers/STM32F4xx_HAL_Driver/Src/stm32f4xx_hal_dac.c ****        a software trigger) occurs if DMA1 requests are enabled using
  85:Drivers/STM32F4xx_HAL_Driver/Src/stm32f4xx_hal_dac.c ****        HAL_DAC_Start_DMA()
  86:Drivers/STM32F4xx_HAL_Driver/Src/stm32f4xx_hal_dac.c ****        [..]
ARM GAS  /tmp/ccSfSgjJ.s 			page 3


  87:Drivers/STM32F4xx_HAL_Driver/Src/stm32f4xx_hal_dac.c ****        DMA1 requests are mapped as following:
  88:Drivers/STM32F4xx_HAL_Driver/Src/stm32f4xx_hal_dac.c ****          (#) DAC channel1 : mapped on DMA1 Stream5 channel7 which must be 
  89:Drivers/STM32F4xx_HAL_Driver/Src/stm32f4xx_hal_dac.c ****              already configured
  90:Drivers/STM32F4xx_HAL_Driver/Src/stm32f4xx_hal_dac.c ****          (#) DAC channel2 : mapped on DMA1 Stream6 channel7 which must be 
  91:Drivers/STM32F4xx_HAL_Driver/Src/stm32f4xx_hal_dac.c ****              already configured
  92:Drivers/STM32F4xx_HAL_Driver/Src/stm32f4xx_hal_dac.c ****        
  93:Drivers/STM32F4xx_HAL_Driver/Src/stm32f4xx_hal_dac.c ****     -@- For Dual mode and specific signal (Triangle and noise) generation please 
  94:Drivers/STM32F4xx_HAL_Driver/Src/stm32f4xx_hal_dac.c ****         refer to Extension Features Driver description        
  95:Drivers/STM32F4xx_HAL_Driver/Src/stm32f4xx_hal_dac.c ****   
  96:Drivers/STM32F4xx_HAL_Driver/Src/stm32f4xx_hal_dac.c ****       
  97:Drivers/STM32F4xx_HAL_Driver/Src/stm32f4xx_hal_dac.c ****                       ##### How to use this driver #####
  98:Drivers/STM32F4xx_HAL_Driver/Src/stm32f4xx_hal_dac.c ****   ==============================================================================
  99:Drivers/STM32F4xx_HAL_Driver/Src/stm32f4xx_hal_dac.c ****     [..]          
 100:Drivers/STM32F4xx_HAL_Driver/Src/stm32f4xx_hal_dac.c ****       (+) DAC APB clock must be enabled to get write access to DAC
 101:Drivers/STM32F4xx_HAL_Driver/Src/stm32f4xx_hal_dac.c ****           registers using HAL_DAC_Init()
 102:Drivers/STM32F4xx_HAL_Driver/Src/stm32f4xx_hal_dac.c ****       (+) Configure DAC_OUTx (DAC_OUT1: PA4, DAC_OUT2: PA5) in analog mode.
 103:Drivers/STM32F4xx_HAL_Driver/Src/stm32f4xx_hal_dac.c ****       (+) Configure the DAC channel using HAL_DAC_ConfigChannel() function.
 104:Drivers/STM32F4xx_HAL_Driver/Src/stm32f4xx_hal_dac.c ****       (+) Enable the DAC channel using HAL_DAC_Start() or HAL_DAC_Start_DMA functions
 105:Drivers/STM32F4xx_HAL_Driver/Src/stm32f4xx_hal_dac.c **** 
 106:Drivers/STM32F4xx_HAL_Driver/Src/stm32f4xx_hal_dac.c ****      *** Polling mode IO operation ***
 107:Drivers/STM32F4xx_HAL_Driver/Src/stm32f4xx_hal_dac.c ****      =================================
 108:Drivers/STM32F4xx_HAL_Driver/Src/stm32f4xx_hal_dac.c ****      [..]    
 109:Drivers/STM32F4xx_HAL_Driver/Src/stm32f4xx_hal_dac.c ****        (+) Start the DAC peripheral using HAL_DAC_Start() 
 110:Drivers/STM32F4xx_HAL_Driver/Src/stm32f4xx_hal_dac.c ****        (+) To read the DAC last data output value, use the HAL_DAC_GetValue() function.
 111:Drivers/STM32F4xx_HAL_Driver/Src/stm32f4xx_hal_dac.c ****        (+) Stop the DAC peripheral using HAL_DAC_Stop()
 112:Drivers/STM32F4xx_HAL_Driver/Src/stm32f4xx_hal_dac.c ****        
 113:Drivers/STM32F4xx_HAL_Driver/Src/stm32f4xx_hal_dac.c ****      *** DMA mode IO operation ***    
 114:Drivers/STM32F4xx_HAL_Driver/Src/stm32f4xx_hal_dac.c ****      ==============================
 115:Drivers/STM32F4xx_HAL_Driver/Src/stm32f4xx_hal_dac.c ****      [..]    
 116:Drivers/STM32F4xx_HAL_Driver/Src/stm32f4xx_hal_dac.c ****        (+) Start the DAC peripheral using HAL_DAC_Start_DMA(), at this stage the user specify the l
 117:Drivers/STM32F4xx_HAL_Driver/Src/stm32f4xx_hal_dac.c ****            of data to be transferred at each end of conversion 
 118:Drivers/STM32F4xx_HAL_Driver/Src/stm32f4xx_hal_dac.c ****        (+) At The end of data transfer HAL_DAC_ConvCpltCallbackCh1()or HAL_DAC_ConvCpltCallbackCh2(
 119:Drivers/STM32F4xx_HAL_Driver/Src/stm32f4xx_hal_dac.c ****            function is executed and user can add his own code by customization of function pointer 
 120:Drivers/STM32F4xx_HAL_Driver/Src/stm32f4xx_hal_dac.c ****            HAL_DAC_ConvCpltCallbackCh1 or HAL_DAC_ConvCpltCallbackCh2
 121:Drivers/STM32F4xx_HAL_Driver/Src/stm32f4xx_hal_dac.c ****        (+) In case of transfer Error, HAL_DAC_ErrorCallbackCh1() function is executed and user can 
 122:Drivers/STM32F4xx_HAL_Driver/Src/stm32f4xx_hal_dac.c ****             add his own code by customization of function pointer HAL_DAC_ErrorCallbackCh1
 123:Drivers/STM32F4xx_HAL_Driver/Src/stm32f4xx_hal_dac.c ****        (+) Stop the DAC peripheral using HAL_DAC_Stop_DMA()
 124:Drivers/STM32F4xx_HAL_Driver/Src/stm32f4xx_hal_dac.c ****                     
 125:Drivers/STM32F4xx_HAL_Driver/Src/stm32f4xx_hal_dac.c ****     *** Callback registration ***
 126:Drivers/STM32F4xx_HAL_Driver/Src/stm32f4xx_hal_dac.c ****     =============================================
 127:Drivers/STM32F4xx_HAL_Driver/Src/stm32f4xx_hal_dac.c ****     [..]
 128:Drivers/STM32F4xx_HAL_Driver/Src/stm32f4xx_hal_dac.c ****       The compilation define  USE_HAL_DAC_REGISTER_CALLBACKS when set to 1
 129:Drivers/STM32F4xx_HAL_Driver/Src/stm32f4xx_hal_dac.c ****       allows the user to configure dynamically the driver callbacks.
 130:Drivers/STM32F4xx_HAL_Driver/Src/stm32f4xx_hal_dac.c **** 
 131:Drivers/STM32F4xx_HAL_Driver/Src/stm32f4xx_hal_dac.c ****     Use Functions @ref HAL_DAC_RegisterCallback() to register a user callback,
 132:Drivers/STM32F4xx_HAL_Driver/Src/stm32f4xx_hal_dac.c ****       it allows to register following callbacks:
 133:Drivers/STM32F4xx_HAL_Driver/Src/stm32f4xx_hal_dac.c ****       (+) ConvCpltCallbackCh1     : callback when a half transfer is completed on Ch1.
 134:Drivers/STM32F4xx_HAL_Driver/Src/stm32f4xx_hal_dac.c ****       (+) ConvHalfCpltCallbackCh1 : callback when a transfer is completed on Ch1.
 135:Drivers/STM32F4xx_HAL_Driver/Src/stm32f4xx_hal_dac.c ****       (+) ErrorCallbackCh1        : callback when an error occurs on Ch1.
 136:Drivers/STM32F4xx_HAL_Driver/Src/stm32f4xx_hal_dac.c ****       (+) DMAUnderrunCallbackCh1  : callback when an underrun error occurs on Ch1.
 137:Drivers/STM32F4xx_HAL_Driver/Src/stm32f4xx_hal_dac.c ****       (+) ConvCpltCallbackCh2     : callback when a half transfer is completed on Ch2.
 138:Drivers/STM32F4xx_HAL_Driver/Src/stm32f4xx_hal_dac.c ****       (+) ConvHalfCpltCallbackCh2 : callback when a transfer is completed on Ch2.
 139:Drivers/STM32F4xx_HAL_Driver/Src/stm32f4xx_hal_dac.c ****       (+) ErrorCallbackCh2        : callback when an error occurs on Ch2.
 140:Drivers/STM32F4xx_HAL_Driver/Src/stm32f4xx_hal_dac.c ****       (+) DMAUnderrunCallbackCh2  : callback when an underrun error occurs on Ch2.
 141:Drivers/STM32F4xx_HAL_Driver/Src/stm32f4xx_hal_dac.c ****       (+) MspInitCallback         : DAC MspInit.
 142:Drivers/STM32F4xx_HAL_Driver/Src/stm32f4xx_hal_dac.c ****       (+) MspDeInitCallback       : DAC MspdeInit.
 143:Drivers/STM32F4xx_HAL_Driver/Src/stm32f4xx_hal_dac.c ****       This function takes as parameters the HAL peripheral handle, the Callback ID
ARM GAS  /tmp/ccSfSgjJ.s 			page 4


 144:Drivers/STM32F4xx_HAL_Driver/Src/stm32f4xx_hal_dac.c ****       and a pointer to the user callback function.
 145:Drivers/STM32F4xx_HAL_Driver/Src/stm32f4xx_hal_dac.c **** 
 146:Drivers/STM32F4xx_HAL_Driver/Src/stm32f4xx_hal_dac.c ****     Use function @ref HAL_DAC_UnRegisterCallback() to reset a callback to the default
 147:Drivers/STM32F4xx_HAL_Driver/Src/stm32f4xx_hal_dac.c ****       weak (surcharged) function. It allows to reset following callbacks:
 148:Drivers/STM32F4xx_HAL_Driver/Src/stm32f4xx_hal_dac.c ****       (+) ConvCpltCallbackCh1     : callback when a half transfer is completed on Ch1.
 149:Drivers/STM32F4xx_HAL_Driver/Src/stm32f4xx_hal_dac.c ****       (+) ConvHalfCpltCallbackCh1 : callback when a transfer is completed on Ch1.
 150:Drivers/STM32F4xx_HAL_Driver/Src/stm32f4xx_hal_dac.c ****       (+) ErrorCallbackCh1        : callback when an error occurs on Ch1.
 151:Drivers/STM32F4xx_HAL_Driver/Src/stm32f4xx_hal_dac.c ****       (+) DMAUnderrunCallbackCh1  : callback when an underrun error occurs on Ch1.
 152:Drivers/STM32F4xx_HAL_Driver/Src/stm32f4xx_hal_dac.c ****       (+) ConvCpltCallbackCh2     : callback when a half transfer is completed on Ch2.
 153:Drivers/STM32F4xx_HAL_Driver/Src/stm32f4xx_hal_dac.c ****       (+) ConvHalfCpltCallbackCh2 : callback when a transfer is completed on Ch2.
 154:Drivers/STM32F4xx_HAL_Driver/Src/stm32f4xx_hal_dac.c ****       (+) ErrorCallbackCh2        : callback when an error occurs on Ch2.
 155:Drivers/STM32F4xx_HAL_Driver/Src/stm32f4xx_hal_dac.c ****       (+) DMAUnderrunCallbackCh2  : callback when an underrun error occurs on Ch2.
 156:Drivers/STM32F4xx_HAL_Driver/Src/stm32f4xx_hal_dac.c ****       (+) MspInitCallback         : DAC MspInit.
 157:Drivers/STM32F4xx_HAL_Driver/Src/stm32f4xx_hal_dac.c ****       (+) MspDeInitCallback       : DAC MspdeInit.
 158:Drivers/STM32F4xx_HAL_Driver/Src/stm32f4xx_hal_dac.c ****       (+) All Callbacks
 159:Drivers/STM32F4xx_HAL_Driver/Src/stm32f4xx_hal_dac.c ****       This function) takes as parameters the HAL peripheral handle and the Callback ID.
 160:Drivers/STM32F4xx_HAL_Driver/Src/stm32f4xx_hal_dac.c **** 
 161:Drivers/STM32F4xx_HAL_Driver/Src/stm32f4xx_hal_dac.c ****       By default, after the @ref HAL_DAC_Init and if the state is HAL_DAC_STATE_RESET
 162:Drivers/STM32F4xx_HAL_Driver/Src/stm32f4xx_hal_dac.c ****       all callbacks are reset to the corresponding legacy weak (surcharged) functions.
 163:Drivers/STM32F4xx_HAL_Driver/Src/stm32f4xx_hal_dac.c ****       Exception done for MspInit and MspDeInit callbacks that are respectively
 164:Drivers/STM32F4xx_HAL_Driver/Src/stm32f4xx_hal_dac.c ****       reset to the legacy weak (surcharged) functions in the @ref HAL_DAC_Init
 165:Drivers/STM32F4xx_HAL_Driver/Src/stm32f4xx_hal_dac.c ****       and @ref  HAL_DAC_DeInit only when these callbacks are null (not registered beforehand).
 166:Drivers/STM32F4xx_HAL_Driver/Src/stm32f4xx_hal_dac.c ****       If not, MspInit or MspDeInit are not null, the @ref HAL_DAC_Init and @ref HAL_DAC_DeInit
 167:Drivers/STM32F4xx_HAL_Driver/Src/stm32f4xx_hal_dac.c ****       keep and use the user MspInit/MspDeInit callbacks (registered beforehand)
 168:Drivers/STM32F4xx_HAL_Driver/Src/stm32f4xx_hal_dac.c **** 
 169:Drivers/STM32F4xx_HAL_Driver/Src/stm32f4xx_hal_dac.c ****       Callbacks can be registered/unregistered in READY state only.
 170:Drivers/STM32F4xx_HAL_Driver/Src/stm32f4xx_hal_dac.c ****       Exception done for MspInit/MspDeInit callbacks that can be registered/unregistered
 171:Drivers/STM32F4xx_HAL_Driver/Src/stm32f4xx_hal_dac.c ****       in READY or RESET state, thus registered (user) MspInit/DeInit callbacks can be used
 172:Drivers/STM32F4xx_HAL_Driver/Src/stm32f4xx_hal_dac.c ****       during the Init/DeInit.
 173:Drivers/STM32F4xx_HAL_Driver/Src/stm32f4xx_hal_dac.c ****       In that case first register the MspInit/MspDeInit user callbacks
 174:Drivers/STM32F4xx_HAL_Driver/Src/stm32f4xx_hal_dac.c ****       using @ref HAL_DAC_RegisterCallback before calling @ref HAL_DAC_DeInit
 175:Drivers/STM32F4xx_HAL_Driver/Src/stm32f4xx_hal_dac.c ****       or @ref HAL_DAC_Init function.
 176:Drivers/STM32F4xx_HAL_Driver/Src/stm32f4xx_hal_dac.c **** 
 177:Drivers/STM32F4xx_HAL_Driver/Src/stm32f4xx_hal_dac.c ****       When The compilation define USE_HAL_DAC_REGISTER_CALLBACKS is set to 0 or
 178:Drivers/STM32F4xx_HAL_Driver/Src/stm32f4xx_hal_dac.c ****       not defined, the callback registering feature is not available
 179:Drivers/STM32F4xx_HAL_Driver/Src/stm32f4xx_hal_dac.c ****       and weak (surcharged) callbacks are used.
 180:Drivers/STM32F4xx_HAL_Driver/Src/stm32f4xx_hal_dac.c ****      *** DAC HAL driver macros list ***
 181:Drivers/STM32F4xx_HAL_Driver/Src/stm32f4xx_hal_dac.c ****      ============================================= 
 182:Drivers/STM32F4xx_HAL_Driver/Src/stm32f4xx_hal_dac.c ****      [..]
 183:Drivers/STM32F4xx_HAL_Driver/Src/stm32f4xx_hal_dac.c ****        Below the list of most used macros in DAC HAL driver.
 184:Drivers/STM32F4xx_HAL_Driver/Src/stm32f4xx_hal_dac.c ****        
 185:Drivers/STM32F4xx_HAL_Driver/Src/stm32f4xx_hal_dac.c ****       (+) __HAL_DAC_ENABLE : Enable the DAC peripheral
 186:Drivers/STM32F4xx_HAL_Driver/Src/stm32f4xx_hal_dac.c ****       (+) __HAL_DAC_DISABLE : Disable the DAC peripheral
 187:Drivers/STM32F4xx_HAL_Driver/Src/stm32f4xx_hal_dac.c ****       (+) __HAL_DAC_CLEAR_FLAG: Clear the DAC's pending flags
 188:Drivers/STM32F4xx_HAL_Driver/Src/stm32f4xx_hal_dac.c ****       (+) __HAL_DAC_GET_FLAG: Get the selected DAC's flag status
 189:Drivers/STM32F4xx_HAL_Driver/Src/stm32f4xx_hal_dac.c ****       
 190:Drivers/STM32F4xx_HAL_Driver/Src/stm32f4xx_hal_dac.c ****      [..]
 191:Drivers/STM32F4xx_HAL_Driver/Src/stm32f4xx_hal_dac.c ****       (@) You can refer to the DAC HAL driver header file for more useful macros  
 192:Drivers/STM32F4xx_HAL_Driver/Src/stm32f4xx_hal_dac.c ****    
 193:Drivers/STM32F4xx_HAL_Driver/Src/stm32f4xx_hal_dac.c ****  @endverbatim    
 194:Drivers/STM32F4xx_HAL_Driver/Src/stm32f4xx_hal_dac.c ****   ******************************************************************************
 195:Drivers/STM32F4xx_HAL_Driver/Src/stm32f4xx_hal_dac.c ****   * @attention
 196:Drivers/STM32F4xx_HAL_Driver/Src/stm32f4xx_hal_dac.c ****   *
 197:Drivers/STM32F4xx_HAL_Driver/Src/stm32f4xx_hal_dac.c ****   * <h2><center>&copy; Copyright (c) 2017 STMicroelectronics.
 198:Drivers/STM32F4xx_HAL_Driver/Src/stm32f4xx_hal_dac.c ****   * All rights reserved.</center></h2>
 199:Drivers/STM32F4xx_HAL_Driver/Src/stm32f4xx_hal_dac.c ****   *
 200:Drivers/STM32F4xx_HAL_Driver/Src/stm32f4xx_hal_dac.c ****   * This software component is licensed by ST under BSD 3-Clause license,
ARM GAS  /tmp/ccSfSgjJ.s 			page 5


 201:Drivers/STM32F4xx_HAL_Driver/Src/stm32f4xx_hal_dac.c ****   * the "License"; You may not use this file except in compliance with the
 202:Drivers/STM32F4xx_HAL_Driver/Src/stm32f4xx_hal_dac.c ****   * License. You may obtain a copy of the License at:
 203:Drivers/STM32F4xx_HAL_Driver/Src/stm32f4xx_hal_dac.c ****   *                        opensource.org/licenses/BSD-3-Clause
 204:Drivers/STM32F4xx_HAL_Driver/Src/stm32f4xx_hal_dac.c ****   *
 205:Drivers/STM32F4xx_HAL_Driver/Src/stm32f4xx_hal_dac.c ****   ******************************************************************************
 206:Drivers/STM32F4xx_HAL_Driver/Src/stm32f4xx_hal_dac.c ****   */ 
 207:Drivers/STM32F4xx_HAL_Driver/Src/stm32f4xx_hal_dac.c **** 
 208:Drivers/STM32F4xx_HAL_Driver/Src/stm32f4xx_hal_dac.c **** 
 209:Drivers/STM32F4xx_HAL_Driver/Src/stm32f4xx_hal_dac.c **** /* Includes ------------------------------------------------------------------*/
 210:Drivers/STM32F4xx_HAL_Driver/Src/stm32f4xx_hal_dac.c **** #include "stm32f4xx_hal.h"
 211:Drivers/STM32F4xx_HAL_Driver/Src/stm32f4xx_hal_dac.c **** 
 212:Drivers/STM32F4xx_HAL_Driver/Src/stm32f4xx_hal_dac.c **** /** @addtogroup STM32F4xx_HAL_Driver
 213:Drivers/STM32F4xx_HAL_Driver/Src/stm32f4xx_hal_dac.c ****   * @{
 214:Drivers/STM32F4xx_HAL_Driver/Src/stm32f4xx_hal_dac.c ****   */
 215:Drivers/STM32F4xx_HAL_Driver/Src/stm32f4xx_hal_dac.c **** 
 216:Drivers/STM32F4xx_HAL_Driver/Src/stm32f4xx_hal_dac.c **** /** @defgroup DAC DAC
 217:Drivers/STM32F4xx_HAL_Driver/Src/stm32f4xx_hal_dac.c ****   * @brief DAC driver modules
 218:Drivers/STM32F4xx_HAL_Driver/Src/stm32f4xx_hal_dac.c ****   * @{
 219:Drivers/STM32F4xx_HAL_Driver/Src/stm32f4xx_hal_dac.c ****   */ 
 220:Drivers/STM32F4xx_HAL_Driver/Src/stm32f4xx_hal_dac.c **** 
 221:Drivers/STM32F4xx_HAL_Driver/Src/stm32f4xx_hal_dac.c **** #ifdef HAL_DAC_MODULE_ENABLED
 222:Drivers/STM32F4xx_HAL_Driver/Src/stm32f4xx_hal_dac.c **** 
 223:Drivers/STM32F4xx_HAL_Driver/Src/stm32f4xx_hal_dac.c **** #if defined(STM32F405xx) || defined(STM32F415xx) || defined(STM32F407xx) || defined(STM32F417xx) ||
 224:Drivers/STM32F4xx_HAL_Driver/Src/stm32f4xx_hal_dac.c ****     defined(STM32F427xx) || defined(STM32F437xx) || defined(STM32F429xx) || defined(STM32F439xx) ||
 225:Drivers/STM32F4xx_HAL_Driver/Src/stm32f4xx_hal_dac.c ****     defined(STM32F410Tx) || defined(STM32F410Cx) || defined(STM32F410Rx) || defined(STM32F446xx) ||
 226:Drivers/STM32F4xx_HAL_Driver/Src/stm32f4xx_hal_dac.c ****     defined(STM32F469xx) || defined(STM32F479xx) || defined(STM32F413xx) || defined(STM32F423xx)
 227:Drivers/STM32F4xx_HAL_Driver/Src/stm32f4xx_hal_dac.c **** /* Private typedef -----------------------------------------------------------*/
 228:Drivers/STM32F4xx_HAL_Driver/Src/stm32f4xx_hal_dac.c **** /* Private define ------------------------------------------------------------*/
 229:Drivers/STM32F4xx_HAL_Driver/Src/stm32f4xx_hal_dac.c **** /* Private macro -------------------------------------------------------------*/
 230:Drivers/STM32F4xx_HAL_Driver/Src/stm32f4xx_hal_dac.c **** /* Private variables ---------------------------------------------------------*/
 231:Drivers/STM32F4xx_HAL_Driver/Src/stm32f4xx_hal_dac.c **** /** @addtogroup DAC_Private_Functions
 232:Drivers/STM32F4xx_HAL_Driver/Src/stm32f4xx_hal_dac.c ****   * @{
 233:Drivers/STM32F4xx_HAL_Driver/Src/stm32f4xx_hal_dac.c ****   */
 234:Drivers/STM32F4xx_HAL_Driver/Src/stm32f4xx_hal_dac.c **** /* Private function prototypes -----------------------------------------------*/
 235:Drivers/STM32F4xx_HAL_Driver/Src/stm32f4xx_hal_dac.c **** static void DAC_DMAConvCpltCh1(DMA_HandleTypeDef *hdma);
 236:Drivers/STM32F4xx_HAL_Driver/Src/stm32f4xx_hal_dac.c **** static void DAC_DMAErrorCh1(DMA_HandleTypeDef *hdma);
 237:Drivers/STM32F4xx_HAL_Driver/Src/stm32f4xx_hal_dac.c **** static void DAC_DMAHalfConvCpltCh1(DMA_HandleTypeDef *hdma); 
 238:Drivers/STM32F4xx_HAL_Driver/Src/stm32f4xx_hal_dac.c **** /**
 239:Drivers/STM32F4xx_HAL_Driver/Src/stm32f4xx_hal_dac.c ****   * @}
 240:Drivers/STM32F4xx_HAL_Driver/Src/stm32f4xx_hal_dac.c ****   */
 241:Drivers/STM32F4xx_HAL_Driver/Src/stm32f4xx_hal_dac.c **** 
 242:Drivers/STM32F4xx_HAL_Driver/Src/stm32f4xx_hal_dac.c **** /* Exported functions --------------------------------------------------------*/
 243:Drivers/STM32F4xx_HAL_Driver/Src/stm32f4xx_hal_dac.c **** /** @defgroup DAC_Exported_Functions DAC Exported Functions
 244:Drivers/STM32F4xx_HAL_Driver/Src/stm32f4xx_hal_dac.c ****   * @{
 245:Drivers/STM32F4xx_HAL_Driver/Src/stm32f4xx_hal_dac.c ****   */
 246:Drivers/STM32F4xx_HAL_Driver/Src/stm32f4xx_hal_dac.c **** 
 247:Drivers/STM32F4xx_HAL_Driver/Src/stm32f4xx_hal_dac.c **** /** @defgroup DAC_Exported_Functions_Group1 Initialization and de-initialization functions 
 248:Drivers/STM32F4xx_HAL_Driver/Src/stm32f4xx_hal_dac.c ****  *  @brief    Initialization and Configuration functions 
 249:Drivers/STM32F4xx_HAL_Driver/Src/stm32f4xx_hal_dac.c ****  *
 250:Drivers/STM32F4xx_HAL_Driver/Src/stm32f4xx_hal_dac.c **** @verbatim    
 251:Drivers/STM32F4xx_HAL_Driver/Src/stm32f4xx_hal_dac.c ****   ==============================================================================
 252:Drivers/STM32F4xx_HAL_Driver/Src/stm32f4xx_hal_dac.c ****               ##### Initialization and de-initialization functions #####
 253:Drivers/STM32F4xx_HAL_Driver/Src/stm32f4xx_hal_dac.c ****   ==============================================================================
 254:Drivers/STM32F4xx_HAL_Driver/Src/stm32f4xx_hal_dac.c ****     [..]  This section provides functions allowing to:
 255:Drivers/STM32F4xx_HAL_Driver/Src/stm32f4xx_hal_dac.c ****       (+) Initialize and configure the DAC. 
 256:Drivers/STM32F4xx_HAL_Driver/Src/stm32f4xx_hal_dac.c ****       (+) De-initialize the DAC. 
 257:Drivers/STM32F4xx_HAL_Driver/Src/stm32f4xx_hal_dac.c ****          
ARM GAS  /tmp/ccSfSgjJ.s 			page 6


 258:Drivers/STM32F4xx_HAL_Driver/Src/stm32f4xx_hal_dac.c **** @endverbatim
 259:Drivers/STM32F4xx_HAL_Driver/Src/stm32f4xx_hal_dac.c ****   * @{
 260:Drivers/STM32F4xx_HAL_Driver/Src/stm32f4xx_hal_dac.c ****   */
 261:Drivers/STM32F4xx_HAL_Driver/Src/stm32f4xx_hal_dac.c **** 
 262:Drivers/STM32F4xx_HAL_Driver/Src/stm32f4xx_hal_dac.c **** /**
 263:Drivers/STM32F4xx_HAL_Driver/Src/stm32f4xx_hal_dac.c ****   * @brief  Initializes the DAC peripheral according to the specified parameters
 264:Drivers/STM32F4xx_HAL_Driver/Src/stm32f4xx_hal_dac.c ****   *         in the DAC_InitStruct.
 265:Drivers/STM32F4xx_HAL_Driver/Src/stm32f4xx_hal_dac.c ****   * @param  hdac pointer to a DAC_HandleTypeDef structure that contains
 266:Drivers/STM32F4xx_HAL_Driver/Src/stm32f4xx_hal_dac.c ****   *         the configuration information for the specified DAC.
 267:Drivers/STM32F4xx_HAL_Driver/Src/stm32f4xx_hal_dac.c ****   * @retval HAL status
 268:Drivers/STM32F4xx_HAL_Driver/Src/stm32f4xx_hal_dac.c ****   */
 269:Drivers/STM32F4xx_HAL_Driver/Src/stm32f4xx_hal_dac.c **** HAL_StatusTypeDef HAL_DAC_Init(DAC_HandleTypeDef* hdac)
 270:Drivers/STM32F4xx_HAL_Driver/Src/stm32f4xx_hal_dac.c **** { 
 271:Drivers/STM32F4xx_HAL_Driver/Src/stm32f4xx_hal_dac.c ****   /* Check DAC handle */
 272:Drivers/STM32F4xx_HAL_Driver/Src/stm32f4xx_hal_dac.c ****   if(hdac == NULL)
 273:Drivers/STM32F4xx_HAL_Driver/Src/stm32f4xx_hal_dac.c ****   {
 274:Drivers/STM32F4xx_HAL_Driver/Src/stm32f4xx_hal_dac.c ****      return HAL_ERROR;
 275:Drivers/STM32F4xx_HAL_Driver/Src/stm32f4xx_hal_dac.c ****   }
 276:Drivers/STM32F4xx_HAL_Driver/Src/stm32f4xx_hal_dac.c ****   /* Check the parameters */
 277:Drivers/STM32F4xx_HAL_Driver/Src/stm32f4xx_hal_dac.c ****   assert_param(IS_DAC_ALL_INSTANCE(hdac->Instance));
 278:Drivers/STM32F4xx_HAL_Driver/Src/stm32f4xx_hal_dac.c ****   
 279:Drivers/STM32F4xx_HAL_Driver/Src/stm32f4xx_hal_dac.c ****   if(hdac->State == HAL_DAC_STATE_RESET)
 280:Drivers/STM32F4xx_HAL_Driver/Src/stm32f4xx_hal_dac.c ****   {  
 281:Drivers/STM32F4xx_HAL_Driver/Src/stm32f4xx_hal_dac.c **** #if (USE_HAL_DAC_REGISTER_CALLBACKS == 1)
 282:Drivers/STM32F4xx_HAL_Driver/Src/stm32f4xx_hal_dac.c ****     /* Init the DAC Callback settings */
 283:Drivers/STM32F4xx_HAL_Driver/Src/stm32f4xx_hal_dac.c ****     hdac->ConvCpltCallbackCh1           = HAL_DAC_ConvCpltCallbackCh1;
 284:Drivers/STM32F4xx_HAL_Driver/Src/stm32f4xx_hal_dac.c ****     hdac->ConvHalfCpltCallbackCh1       = HAL_DAC_ConvHalfCpltCallbackCh1;
 285:Drivers/STM32F4xx_HAL_Driver/Src/stm32f4xx_hal_dac.c ****     hdac->ErrorCallbackCh1              = HAL_DAC_ErrorCallbackCh1;
 286:Drivers/STM32F4xx_HAL_Driver/Src/stm32f4xx_hal_dac.c ****     hdac->DMAUnderrunCallbackCh1        = HAL_DAC_DMAUnderrunCallbackCh1;
 287:Drivers/STM32F4xx_HAL_Driver/Src/stm32f4xx_hal_dac.c **** 
 288:Drivers/STM32F4xx_HAL_Driver/Src/stm32f4xx_hal_dac.c ****     hdac->ConvCpltCallbackCh2           = HAL_DACEx_ConvCpltCallbackCh2;
 289:Drivers/STM32F4xx_HAL_Driver/Src/stm32f4xx_hal_dac.c ****     hdac->ConvHalfCpltCallbackCh2       = HAL_DACEx_ConvHalfCpltCallbackCh2;
 290:Drivers/STM32F4xx_HAL_Driver/Src/stm32f4xx_hal_dac.c ****     hdac->ErrorCallbackCh2              = HAL_DACEx_ErrorCallbackCh2;
 291:Drivers/STM32F4xx_HAL_Driver/Src/stm32f4xx_hal_dac.c ****     hdac->DMAUnderrunCallbackCh2        = HAL_DACEx_DMAUnderrunCallbackCh2;
 292:Drivers/STM32F4xx_HAL_Driver/Src/stm32f4xx_hal_dac.c **** 
 293:Drivers/STM32F4xx_HAL_Driver/Src/stm32f4xx_hal_dac.c ****     if(hdac->MspInitCallback == NULL)
 294:Drivers/STM32F4xx_HAL_Driver/Src/stm32f4xx_hal_dac.c ****     {
 295:Drivers/STM32F4xx_HAL_Driver/Src/stm32f4xx_hal_dac.c ****       hdac->MspInitCallback               = HAL_DAC_MspInit;
 296:Drivers/STM32F4xx_HAL_Driver/Src/stm32f4xx_hal_dac.c ****     }
 297:Drivers/STM32F4xx_HAL_Driver/Src/stm32f4xx_hal_dac.c **** #endif /* USE_HAL_DAC_REGISTER_CALLBACKS */
 298:Drivers/STM32F4xx_HAL_Driver/Src/stm32f4xx_hal_dac.c ****     /* Allocate lock resource and initialize it */
 299:Drivers/STM32F4xx_HAL_Driver/Src/stm32f4xx_hal_dac.c ****     hdac->Lock = HAL_UNLOCKED;
 300:Drivers/STM32F4xx_HAL_Driver/Src/stm32f4xx_hal_dac.c **** #if (USE_HAL_DAC_REGISTER_CALLBACKS == 1)
 301:Drivers/STM32F4xx_HAL_Driver/Src/stm32f4xx_hal_dac.c ****     /* Init the low level hardware */
 302:Drivers/STM32F4xx_HAL_Driver/Src/stm32f4xx_hal_dac.c ****     hdac->MspInitCallback(hdac);
 303:Drivers/STM32F4xx_HAL_Driver/Src/stm32f4xx_hal_dac.c **** #else
 304:Drivers/STM32F4xx_HAL_Driver/Src/stm32f4xx_hal_dac.c ****     /* Init the low level hardware */
 305:Drivers/STM32F4xx_HAL_Driver/Src/stm32f4xx_hal_dac.c ****     HAL_DAC_MspInit(hdac);
 306:Drivers/STM32F4xx_HAL_Driver/Src/stm32f4xx_hal_dac.c **** #endif /* USE_HAL_DAC_REGISTER_CALLBACKS */
 307:Drivers/STM32F4xx_HAL_Driver/Src/stm32f4xx_hal_dac.c ****   }
 308:Drivers/STM32F4xx_HAL_Driver/Src/stm32f4xx_hal_dac.c ****   
 309:Drivers/STM32F4xx_HAL_Driver/Src/stm32f4xx_hal_dac.c ****   /* Initialize the DAC state*/
 310:Drivers/STM32F4xx_HAL_Driver/Src/stm32f4xx_hal_dac.c ****   hdac->State = HAL_DAC_STATE_BUSY;
 311:Drivers/STM32F4xx_HAL_Driver/Src/stm32f4xx_hal_dac.c ****   
 312:Drivers/STM32F4xx_HAL_Driver/Src/stm32f4xx_hal_dac.c ****   /* Set DAC error code to none */
 313:Drivers/STM32F4xx_HAL_Driver/Src/stm32f4xx_hal_dac.c ****   hdac->ErrorCode = HAL_DAC_ERROR_NONE;
 314:Drivers/STM32F4xx_HAL_Driver/Src/stm32f4xx_hal_dac.c ****   
ARM GAS  /tmp/ccSfSgjJ.s 			page 7


 315:Drivers/STM32F4xx_HAL_Driver/Src/stm32f4xx_hal_dac.c ****   /* Initialize the DAC state*/
 316:Drivers/STM32F4xx_HAL_Driver/Src/stm32f4xx_hal_dac.c ****   hdac->State = HAL_DAC_STATE_READY;
 317:Drivers/STM32F4xx_HAL_Driver/Src/stm32f4xx_hal_dac.c ****   
 318:Drivers/STM32F4xx_HAL_Driver/Src/stm32f4xx_hal_dac.c ****   /* Return function status */
 319:Drivers/STM32F4xx_HAL_Driver/Src/stm32f4xx_hal_dac.c ****   return HAL_OK;
 320:Drivers/STM32F4xx_HAL_Driver/Src/stm32f4xx_hal_dac.c **** }
 321:Drivers/STM32F4xx_HAL_Driver/Src/stm32f4xx_hal_dac.c **** 
 322:Drivers/STM32F4xx_HAL_Driver/Src/stm32f4xx_hal_dac.c **** /**
 323:Drivers/STM32F4xx_HAL_Driver/Src/stm32f4xx_hal_dac.c ****   * @brief  Deinitializes the DAC peripheral registers to their default reset values.
 324:Drivers/STM32F4xx_HAL_Driver/Src/stm32f4xx_hal_dac.c ****   * @param  hdac pointer to a DAC_HandleTypeDef structure that contains
 325:Drivers/STM32F4xx_HAL_Driver/Src/stm32f4xx_hal_dac.c ****   *         the configuration information for the specified DAC.
 326:Drivers/STM32F4xx_HAL_Driver/Src/stm32f4xx_hal_dac.c ****   * @retval HAL status
 327:Drivers/STM32F4xx_HAL_Driver/Src/stm32f4xx_hal_dac.c ****   */
 328:Drivers/STM32F4xx_HAL_Driver/Src/stm32f4xx_hal_dac.c **** HAL_StatusTypeDef HAL_DAC_DeInit(DAC_HandleTypeDef* hdac)
 329:Drivers/STM32F4xx_HAL_Driver/Src/stm32f4xx_hal_dac.c **** {
 330:Drivers/STM32F4xx_HAL_Driver/Src/stm32f4xx_hal_dac.c ****   /* Check DAC handle */
 331:Drivers/STM32F4xx_HAL_Driver/Src/stm32f4xx_hal_dac.c ****   if(hdac == NULL)
 332:Drivers/STM32F4xx_HAL_Driver/Src/stm32f4xx_hal_dac.c ****   {
 333:Drivers/STM32F4xx_HAL_Driver/Src/stm32f4xx_hal_dac.c ****      return HAL_ERROR;
 334:Drivers/STM32F4xx_HAL_Driver/Src/stm32f4xx_hal_dac.c ****   }
 335:Drivers/STM32F4xx_HAL_Driver/Src/stm32f4xx_hal_dac.c **** 
 336:Drivers/STM32F4xx_HAL_Driver/Src/stm32f4xx_hal_dac.c ****   /* Check the parameters */
 337:Drivers/STM32F4xx_HAL_Driver/Src/stm32f4xx_hal_dac.c ****   assert_param(IS_DAC_ALL_INSTANCE(hdac->Instance));
 338:Drivers/STM32F4xx_HAL_Driver/Src/stm32f4xx_hal_dac.c **** 
 339:Drivers/STM32F4xx_HAL_Driver/Src/stm32f4xx_hal_dac.c ****   /* Change DAC state */
 340:Drivers/STM32F4xx_HAL_Driver/Src/stm32f4xx_hal_dac.c ****   hdac->State = HAL_DAC_STATE_BUSY;
 341:Drivers/STM32F4xx_HAL_Driver/Src/stm32f4xx_hal_dac.c **** 
 342:Drivers/STM32F4xx_HAL_Driver/Src/stm32f4xx_hal_dac.c **** #if (USE_HAL_DAC_REGISTER_CALLBACKS == 1)
 343:Drivers/STM32F4xx_HAL_Driver/Src/stm32f4xx_hal_dac.c ****   if(hdac->MspDeInitCallback == NULL)
 344:Drivers/STM32F4xx_HAL_Driver/Src/stm32f4xx_hal_dac.c ****   {
 345:Drivers/STM32F4xx_HAL_Driver/Src/stm32f4xx_hal_dac.c ****     hdac->MspDeInitCallback = HAL_DAC_MspDeInit;
 346:Drivers/STM32F4xx_HAL_Driver/Src/stm32f4xx_hal_dac.c ****   }
 347:Drivers/STM32F4xx_HAL_Driver/Src/stm32f4xx_hal_dac.c ****   /* DeInit the low level hardware */
 348:Drivers/STM32F4xx_HAL_Driver/Src/stm32f4xx_hal_dac.c ****   hdac->MspDeInitCallback(hdac);
 349:Drivers/STM32F4xx_HAL_Driver/Src/stm32f4xx_hal_dac.c **** #else
 350:Drivers/STM32F4xx_HAL_Driver/Src/stm32f4xx_hal_dac.c ****   /* DeInit the low level hardware */
 351:Drivers/STM32F4xx_HAL_Driver/Src/stm32f4xx_hal_dac.c ****   HAL_DAC_MspDeInit(hdac);
 352:Drivers/STM32F4xx_HAL_Driver/Src/stm32f4xx_hal_dac.c **** #endif /* USE_HAL_DAC_REGISTER_CALLBACKS */
 353:Drivers/STM32F4xx_HAL_Driver/Src/stm32f4xx_hal_dac.c **** 
 354:Drivers/STM32F4xx_HAL_Driver/Src/stm32f4xx_hal_dac.c ****   /* Set DAC error code to none */
 355:Drivers/STM32F4xx_HAL_Driver/Src/stm32f4xx_hal_dac.c ****   hdac->ErrorCode = HAL_DAC_ERROR_NONE;
 356:Drivers/STM32F4xx_HAL_Driver/Src/stm32f4xx_hal_dac.c **** 
 357:Drivers/STM32F4xx_HAL_Driver/Src/stm32f4xx_hal_dac.c ****   /* Change DAC state */
 358:Drivers/STM32F4xx_HAL_Driver/Src/stm32f4xx_hal_dac.c ****   hdac->State = HAL_DAC_STATE_RESET;
 359:Drivers/STM32F4xx_HAL_Driver/Src/stm32f4xx_hal_dac.c **** 
 360:Drivers/STM32F4xx_HAL_Driver/Src/stm32f4xx_hal_dac.c ****   /* Release Lock */
 361:Drivers/STM32F4xx_HAL_Driver/Src/stm32f4xx_hal_dac.c ****   __HAL_UNLOCK(hdac);
 362:Drivers/STM32F4xx_HAL_Driver/Src/stm32f4xx_hal_dac.c **** 
 363:Drivers/STM32F4xx_HAL_Driver/Src/stm32f4xx_hal_dac.c ****   /* Return function status */
 364:Drivers/STM32F4xx_HAL_Driver/Src/stm32f4xx_hal_dac.c ****   return HAL_OK;
 365:Drivers/STM32F4xx_HAL_Driver/Src/stm32f4xx_hal_dac.c **** }
 366:Drivers/STM32F4xx_HAL_Driver/Src/stm32f4xx_hal_dac.c **** 
 367:Drivers/STM32F4xx_HAL_Driver/Src/stm32f4xx_hal_dac.c **** /**
 368:Drivers/STM32F4xx_HAL_Driver/Src/stm32f4xx_hal_dac.c ****   * @brief  Initializes the DAC MSP.
 369:Drivers/STM32F4xx_HAL_Driver/Src/stm32f4xx_hal_dac.c ****   * @param  hdac pointer to a DAC_HandleTypeDef structure that contains
 370:Drivers/STM32F4xx_HAL_Driver/Src/stm32f4xx_hal_dac.c ****   *         the configuration information for the specified DAC.
 371:Drivers/STM32F4xx_HAL_Driver/Src/stm32f4xx_hal_dac.c ****   * @retval None
ARM GAS  /tmp/ccSfSgjJ.s 			page 8


 372:Drivers/STM32F4xx_HAL_Driver/Src/stm32f4xx_hal_dac.c ****   */
 373:Drivers/STM32F4xx_HAL_Driver/Src/stm32f4xx_hal_dac.c **** __weak void HAL_DAC_MspInit(DAC_HandleTypeDef* hdac)
 374:Drivers/STM32F4xx_HAL_Driver/Src/stm32f4xx_hal_dac.c **** {
  30              		.loc 1 374 1 view -0
  31              		.cfi_startproc
  32              		@ args = 0, pretend = 0, frame = 0
  33              		@ frame_needed = 0, uses_anonymous_args = 0
  34              		@ link register save eliminated.
 375:Drivers/STM32F4xx_HAL_Driver/Src/stm32f4xx_hal_dac.c ****   /* Prevent unused argument(s) compilation warning */
 376:Drivers/STM32F4xx_HAL_Driver/Src/stm32f4xx_hal_dac.c ****   UNUSED(hdac);
  35              		.loc 1 376 3 view .LVU1
 377:Drivers/STM32F4xx_HAL_Driver/Src/stm32f4xx_hal_dac.c ****   /* NOTE : This function Should not be modified, when the callback is needed,
 378:Drivers/STM32F4xx_HAL_Driver/Src/stm32f4xx_hal_dac.c ****             the HAL_DAC_MspInit could be implemented in the user file
 379:Drivers/STM32F4xx_HAL_Driver/Src/stm32f4xx_hal_dac.c ****    */ 
 380:Drivers/STM32F4xx_HAL_Driver/Src/stm32f4xx_hal_dac.c **** }
  36              		.loc 1 380 1 is_stmt 0 view .LVU2
  37 0000 7047     		bx	lr
  38              		.cfi_endproc
  39              	.LFE132:
  41              		.section	.text.HAL_DAC_Init,"ax",%progbits
  42              		.align	1
  43              		.global	HAL_DAC_Init
  44              		.syntax unified
  45              		.thumb
  46              		.thumb_func
  47              		.fpu fpv4-sp-d16
  49              	HAL_DAC_Init:
  50              	.LVL1:
  51              	.LFB130:
 270:Drivers/STM32F4xx_HAL_Driver/Src/stm32f4xx_hal_dac.c ****   /* Check DAC handle */
  52              		.loc 1 270 1 is_stmt 1 view -0
  53              		.cfi_startproc
  54              		@ args = 0, pretend = 0, frame = 0
  55              		@ frame_needed = 0, uses_anonymous_args = 0
 272:Drivers/STM32F4xx_HAL_Driver/Src/stm32f4xx_hal_dac.c ****   {
  56              		.loc 1 272 3 view .LVU4
 272:Drivers/STM32F4xx_HAL_Driver/Src/stm32f4xx_hal_dac.c ****   {
  57              		.loc 1 272 5 is_stmt 0 view .LVU5
  58 0000 70B1     		cbz	r0, .L5
 270:Drivers/STM32F4xx_HAL_Driver/Src/stm32f4xx_hal_dac.c ****   /* Check DAC handle */
  59              		.loc 1 270 1 view .LVU6
  60 0002 10B5     		push	{r4, lr}
  61              	.LCFI0:
  62              		.cfi_def_cfa_offset 8
  63              		.cfi_offset 4, -8
  64              		.cfi_offset 14, -4
  65 0004 0446     		mov	r4, r0
 277:Drivers/STM32F4xx_HAL_Driver/Src/stm32f4xx_hal_dac.c ****   
  66              		.loc 1 277 3 is_stmt 1 view .LVU7
 279:Drivers/STM32F4xx_HAL_Driver/Src/stm32f4xx_hal_dac.c ****   {  
  67              		.loc 1 279 3 view .LVU8
 279:Drivers/STM32F4xx_HAL_Driver/Src/stm32f4xx_hal_dac.c ****   {  
  68              		.loc 1 279 10 is_stmt 0 view .LVU9
  69 0006 0379     		ldrb	r3, [r0, #4]	@ zero_extendqisi2
 279:Drivers/STM32F4xx_HAL_Driver/Src/stm32f4xx_hal_dac.c ****   {  
  70              		.loc 1 279 5 view .LVU10
  71 0008 33B1     		cbz	r3, .L10
ARM GAS  /tmp/ccSfSgjJ.s 			page 9


  72              	.LVL2:
  73              	.L4:
 310:Drivers/STM32F4xx_HAL_Driver/Src/stm32f4xx_hal_dac.c ****   
  74              		.loc 1 310 3 is_stmt 1 view .LVU11
 310:Drivers/STM32F4xx_HAL_Driver/Src/stm32f4xx_hal_dac.c ****   
  75              		.loc 1 310 15 is_stmt 0 view .LVU12
  76 000a 0223     		movs	r3, #2
  77 000c 2371     		strb	r3, [r4, #4]
 313:Drivers/STM32F4xx_HAL_Driver/Src/stm32f4xx_hal_dac.c ****   
  78              		.loc 1 313 3 is_stmt 1 view .LVU13
 313:Drivers/STM32F4xx_HAL_Driver/Src/stm32f4xx_hal_dac.c ****   
  79              		.loc 1 313 19 is_stmt 0 view .LVU14
  80 000e 0020     		movs	r0, #0
  81 0010 2061     		str	r0, [r4, #16]
 316:Drivers/STM32F4xx_HAL_Driver/Src/stm32f4xx_hal_dac.c ****   
  82              		.loc 1 316 3 is_stmt 1 view .LVU15
 316:Drivers/STM32F4xx_HAL_Driver/Src/stm32f4xx_hal_dac.c ****   
  83              		.loc 1 316 15 is_stmt 0 view .LVU16
  84 0012 0123     		movs	r3, #1
  85 0014 2371     		strb	r3, [r4, #4]
 319:Drivers/STM32F4xx_HAL_Driver/Src/stm32f4xx_hal_dac.c **** }
  86              		.loc 1 319 3 is_stmt 1 view .LVU17
 320:Drivers/STM32F4xx_HAL_Driver/Src/stm32f4xx_hal_dac.c **** 
  87              		.loc 1 320 1 is_stmt 0 view .LVU18
  88 0016 10BD     		pop	{r4, pc}
  89              	.LVL3:
  90              	.L10:
 299:Drivers/STM32F4xx_HAL_Driver/Src/stm32f4xx_hal_dac.c **** #if (USE_HAL_DAC_REGISTER_CALLBACKS == 1)
  91              		.loc 1 299 5 is_stmt 1 view .LVU19
 299:Drivers/STM32F4xx_HAL_Driver/Src/stm32f4xx_hal_dac.c **** #if (USE_HAL_DAC_REGISTER_CALLBACKS == 1)
  92              		.loc 1 299 16 is_stmt 0 view .LVU20
  93 0018 4371     		strb	r3, [r0, #5]
 305:Drivers/STM32F4xx_HAL_Driver/Src/stm32f4xx_hal_dac.c **** #endif /* USE_HAL_DAC_REGISTER_CALLBACKS */
  94              		.loc 1 305 5 is_stmt 1 view .LVU21
  95 001a FFF7FEFF 		bl	HAL_DAC_MspInit
  96              	.LVL4:
 305:Drivers/STM32F4xx_HAL_Driver/Src/stm32f4xx_hal_dac.c **** #endif /* USE_HAL_DAC_REGISTER_CALLBACKS */
  97              		.loc 1 305 5 is_stmt 0 view .LVU22
  98 001e F4E7     		b	.L4
  99              	.LVL5:
 100              	.L5:
 101              	.LCFI1:
 102              		.cfi_def_cfa_offset 0
 103              		.cfi_restore 4
 104              		.cfi_restore 14
 274:Drivers/STM32F4xx_HAL_Driver/Src/stm32f4xx_hal_dac.c ****   }
 105              		.loc 1 274 13 view .LVU23
 106 0020 0120     		movs	r0, #1
 107              	.LVL6:
 320:Drivers/STM32F4xx_HAL_Driver/Src/stm32f4xx_hal_dac.c **** 
 108              		.loc 1 320 1 view .LVU24
 109 0022 7047     		bx	lr
 110              		.cfi_endproc
 111              	.LFE130:
 113              		.section	.text.HAL_DAC_MspDeInit,"ax",%progbits
 114              		.align	1
 115              		.weak	HAL_DAC_MspDeInit
ARM GAS  /tmp/ccSfSgjJ.s 			page 10


 116              		.syntax unified
 117              		.thumb
 118              		.thumb_func
 119              		.fpu fpv4-sp-d16
 121              	HAL_DAC_MspDeInit:
 122              	.LVL7:
 123              	.LFB133:
 381:Drivers/STM32F4xx_HAL_Driver/Src/stm32f4xx_hal_dac.c **** 
 382:Drivers/STM32F4xx_HAL_Driver/Src/stm32f4xx_hal_dac.c **** /**
 383:Drivers/STM32F4xx_HAL_Driver/Src/stm32f4xx_hal_dac.c ****   * @brief  DeInitializes the DAC MSP.
 384:Drivers/STM32F4xx_HAL_Driver/Src/stm32f4xx_hal_dac.c ****   * @param  hdac pointer to a DAC_HandleTypeDef structure that contains
 385:Drivers/STM32F4xx_HAL_Driver/Src/stm32f4xx_hal_dac.c ****   *         the configuration information for the specified DAC.  
 386:Drivers/STM32F4xx_HAL_Driver/Src/stm32f4xx_hal_dac.c ****   * @retval None
 387:Drivers/STM32F4xx_HAL_Driver/Src/stm32f4xx_hal_dac.c ****   */
 388:Drivers/STM32F4xx_HAL_Driver/Src/stm32f4xx_hal_dac.c **** __weak void HAL_DAC_MspDeInit(DAC_HandleTypeDef* hdac)
 389:Drivers/STM32F4xx_HAL_Driver/Src/stm32f4xx_hal_dac.c **** {
 124              		.loc 1 389 1 is_stmt 1 view -0
 125              		.cfi_startproc
 126              		@ args = 0, pretend = 0, frame = 0
 127              		@ frame_needed = 0, uses_anonymous_args = 0
 128              		@ link register save eliminated.
 390:Drivers/STM32F4xx_HAL_Driver/Src/stm32f4xx_hal_dac.c ****   /* Prevent unused argument(s) compilation warning */
 391:Drivers/STM32F4xx_HAL_Driver/Src/stm32f4xx_hal_dac.c ****   UNUSED(hdac);
 129              		.loc 1 391 3 view .LVU26
 392:Drivers/STM32F4xx_HAL_Driver/Src/stm32f4xx_hal_dac.c ****   /* NOTE : This function Should not be modified, when the callback is needed,
 393:Drivers/STM32F4xx_HAL_Driver/Src/stm32f4xx_hal_dac.c ****             the HAL_DAC_MspDeInit could be implemented in the user file
 394:Drivers/STM32F4xx_HAL_Driver/Src/stm32f4xx_hal_dac.c ****    */ 
 395:Drivers/STM32F4xx_HAL_Driver/Src/stm32f4xx_hal_dac.c **** }
 130              		.loc 1 395 1 is_stmt 0 view .LVU27
 131 0000 7047     		bx	lr
 132              		.cfi_endproc
 133              	.LFE133:
 135              		.section	.text.HAL_DAC_DeInit,"ax",%progbits
 136              		.align	1
 137              		.global	HAL_DAC_DeInit
 138              		.syntax unified
 139              		.thumb
 140              		.thumb_func
 141              		.fpu fpv4-sp-d16
 143              	HAL_DAC_DeInit:
 144              	.LVL8:
 145              	.LFB131:
 329:Drivers/STM32F4xx_HAL_Driver/Src/stm32f4xx_hal_dac.c ****   /* Check DAC handle */
 146              		.loc 1 329 1 is_stmt 1 view -0
 147              		.cfi_startproc
 148              		@ args = 0, pretend = 0, frame = 0
 149              		@ frame_needed = 0, uses_anonymous_args = 0
 331:Drivers/STM32F4xx_HAL_Driver/Src/stm32f4xx_hal_dac.c ****   {
 150              		.loc 1 331 3 view .LVU29
 331:Drivers/STM32F4xx_HAL_Driver/Src/stm32f4xx_hal_dac.c ****   {
 151              		.loc 1 331 5 is_stmt 0 view .LVU30
 152 0000 50B1     		cbz	r0, .L14
 329:Drivers/STM32F4xx_HAL_Driver/Src/stm32f4xx_hal_dac.c ****   /* Check DAC handle */
 153              		.loc 1 329 1 view .LVU31
 154 0002 10B5     		push	{r4, lr}
 155              	.LCFI2:
 156              		.cfi_def_cfa_offset 8
ARM GAS  /tmp/ccSfSgjJ.s 			page 11


 157              		.cfi_offset 4, -8
 158              		.cfi_offset 14, -4
 159 0004 0446     		mov	r4, r0
 337:Drivers/STM32F4xx_HAL_Driver/Src/stm32f4xx_hal_dac.c **** 
 160              		.loc 1 337 3 is_stmt 1 view .LVU32
 340:Drivers/STM32F4xx_HAL_Driver/Src/stm32f4xx_hal_dac.c **** 
 161              		.loc 1 340 3 view .LVU33
 340:Drivers/STM32F4xx_HAL_Driver/Src/stm32f4xx_hal_dac.c **** 
 162              		.loc 1 340 15 is_stmt 0 view .LVU34
 163 0006 0223     		movs	r3, #2
 164 0008 0371     		strb	r3, [r0, #4]
 351:Drivers/STM32F4xx_HAL_Driver/Src/stm32f4xx_hal_dac.c **** #endif /* USE_HAL_DAC_REGISTER_CALLBACKS */
 165              		.loc 1 351 3 is_stmt 1 view .LVU35
 166 000a FFF7FEFF 		bl	HAL_DAC_MspDeInit
 167              	.LVL9:
 355:Drivers/STM32F4xx_HAL_Driver/Src/stm32f4xx_hal_dac.c **** 
 168              		.loc 1 355 3 view .LVU36
 355:Drivers/STM32F4xx_HAL_Driver/Src/stm32f4xx_hal_dac.c **** 
 169              		.loc 1 355 19 is_stmt 0 view .LVU37
 170 000e 0020     		movs	r0, #0
 171 0010 2061     		str	r0, [r4, #16]
 358:Drivers/STM32F4xx_HAL_Driver/Src/stm32f4xx_hal_dac.c **** 
 172              		.loc 1 358 3 is_stmt 1 view .LVU38
 358:Drivers/STM32F4xx_HAL_Driver/Src/stm32f4xx_hal_dac.c **** 
 173              		.loc 1 358 15 is_stmt 0 view .LVU39
 174 0012 2071     		strb	r0, [r4, #4]
 361:Drivers/STM32F4xx_HAL_Driver/Src/stm32f4xx_hal_dac.c **** 
 175              		.loc 1 361 3 is_stmt 1 view .LVU40
 361:Drivers/STM32F4xx_HAL_Driver/Src/stm32f4xx_hal_dac.c **** 
 176              		.loc 1 361 3 view .LVU41
 177 0014 6071     		strb	r0, [r4, #5]
 364:Drivers/STM32F4xx_HAL_Driver/Src/stm32f4xx_hal_dac.c **** }
 178              		.loc 1 364 3 view .LVU42
 365:Drivers/STM32F4xx_HAL_Driver/Src/stm32f4xx_hal_dac.c **** 
 179              		.loc 1 365 1 is_stmt 0 view .LVU43
 180 0016 10BD     		pop	{r4, pc}
 181              	.LVL10:
 182              	.L14:
 183              	.LCFI3:
 184              		.cfi_def_cfa_offset 0
 185              		.cfi_restore 4
 186              		.cfi_restore 14
 333:Drivers/STM32F4xx_HAL_Driver/Src/stm32f4xx_hal_dac.c ****   }
 187              		.loc 1 333 13 view .LVU44
 188 0018 0120     		movs	r0, #1
 189              	.LVL11:
 365:Drivers/STM32F4xx_HAL_Driver/Src/stm32f4xx_hal_dac.c **** 
 190              		.loc 1 365 1 view .LVU45
 191 001a 7047     		bx	lr
 192              		.cfi_endproc
 193              	.LFE131:
 195              		.section	.text.HAL_DAC_Start,"ax",%progbits
 196              		.align	1
 197              		.global	HAL_DAC_Start
 198              		.syntax unified
 199              		.thumb
 200              		.thumb_func
ARM GAS  /tmp/ccSfSgjJ.s 			page 12


 201              		.fpu fpv4-sp-d16
 203              	HAL_DAC_Start:
 204              	.LVL12:
 205              	.LFB134:
 396:Drivers/STM32F4xx_HAL_Driver/Src/stm32f4xx_hal_dac.c **** 
 397:Drivers/STM32F4xx_HAL_Driver/Src/stm32f4xx_hal_dac.c **** /**
 398:Drivers/STM32F4xx_HAL_Driver/Src/stm32f4xx_hal_dac.c ****   * @}
 399:Drivers/STM32F4xx_HAL_Driver/Src/stm32f4xx_hal_dac.c ****   */
 400:Drivers/STM32F4xx_HAL_Driver/Src/stm32f4xx_hal_dac.c **** 
 401:Drivers/STM32F4xx_HAL_Driver/Src/stm32f4xx_hal_dac.c **** /** @defgroup DAC_Exported_Functions_Group2 IO operation functions
 402:Drivers/STM32F4xx_HAL_Driver/Src/stm32f4xx_hal_dac.c ****  *  @brief    IO operation functions 
 403:Drivers/STM32F4xx_HAL_Driver/Src/stm32f4xx_hal_dac.c ****  *
 404:Drivers/STM32F4xx_HAL_Driver/Src/stm32f4xx_hal_dac.c **** @verbatim   
 405:Drivers/STM32F4xx_HAL_Driver/Src/stm32f4xx_hal_dac.c ****   ==============================================================================
 406:Drivers/STM32F4xx_HAL_Driver/Src/stm32f4xx_hal_dac.c ****              ##### IO operation functions #####
 407:Drivers/STM32F4xx_HAL_Driver/Src/stm32f4xx_hal_dac.c ****   ==============================================================================  
 408:Drivers/STM32F4xx_HAL_Driver/Src/stm32f4xx_hal_dac.c ****     [..]  This section provides functions allowing to:
 409:Drivers/STM32F4xx_HAL_Driver/Src/stm32f4xx_hal_dac.c ****       (+) Start conversion.
 410:Drivers/STM32F4xx_HAL_Driver/Src/stm32f4xx_hal_dac.c ****       (+) Stop conversion.
 411:Drivers/STM32F4xx_HAL_Driver/Src/stm32f4xx_hal_dac.c ****       (+) Start conversion and enable DMA transfer.
 412:Drivers/STM32F4xx_HAL_Driver/Src/stm32f4xx_hal_dac.c ****       (+) Stop conversion and disable DMA transfer.
 413:Drivers/STM32F4xx_HAL_Driver/Src/stm32f4xx_hal_dac.c ****       (+) Get result of conversion.
 414:Drivers/STM32F4xx_HAL_Driver/Src/stm32f4xx_hal_dac.c ****                      
 415:Drivers/STM32F4xx_HAL_Driver/Src/stm32f4xx_hal_dac.c **** @endverbatim
 416:Drivers/STM32F4xx_HAL_Driver/Src/stm32f4xx_hal_dac.c ****   * @{
 417:Drivers/STM32F4xx_HAL_Driver/Src/stm32f4xx_hal_dac.c ****   */
 418:Drivers/STM32F4xx_HAL_Driver/Src/stm32f4xx_hal_dac.c **** 
 419:Drivers/STM32F4xx_HAL_Driver/Src/stm32f4xx_hal_dac.c **** /**
 420:Drivers/STM32F4xx_HAL_Driver/Src/stm32f4xx_hal_dac.c ****   * @brief  Enables DAC and starts conversion of channel.
 421:Drivers/STM32F4xx_HAL_Driver/Src/stm32f4xx_hal_dac.c ****   * @param  hdac pointer to a DAC_HandleTypeDef structure that contains
 422:Drivers/STM32F4xx_HAL_Driver/Src/stm32f4xx_hal_dac.c ****   *         the configuration information for the specified DAC.
 423:Drivers/STM32F4xx_HAL_Driver/Src/stm32f4xx_hal_dac.c ****   * @param  Channel The selected DAC channel. 
 424:Drivers/STM32F4xx_HAL_Driver/Src/stm32f4xx_hal_dac.c ****   *          This parameter can be one of the following values:
 425:Drivers/STM32F4xx_HAL_Driver/Src/stm32f4xx_hal_dac.c ****   *            @arg DAC_CHANNEL_1: DAC Channel1 selected
 426:Drivers/STM32F4xx_HAL_Driver/Src/stm32f4xx_hal_dac.c ****   *            @arg DAC_CHANNEL_2: DAC Channel2 selected
 427:Drivers/STM32F4xx_HAL_Driver/Src/stm32f4xx_hal_dac.c ****   * @retval HAL status
 428:Drivers/STM32F4xx_HAL_Driver/Src/stm32f4xx_hal_dac.c ****   */
 429:Drivers/STM32F4xx_HAL_Driver/Src/stm32f4xx_hal_dac.c **** HAL_StatusTypeDef HAL_DAC_Start(DAC_HandleTypeDef* hdac, uint32_t Channel)
 430:Drivers/STM32F4xx_HAL_Driver/Src/stm32f4xx_hal_dac.c **** {
 206              		.loc 1 430 1 is_stmt 1 view -0
 207              		.cfi_startproc
 208              		@ args = 0, pretend = 0, frame = 0
 209              		@ frame_needed = 0, uses_anonymous_args = 0
 210              		@ link register save eliminated.
 431:Drivers/STM32F4xx_HAL_Driver/Src/stm32f4xx_hal_dac.c ****   uint32_t tmp1 = 0U, tmp2 = 0U;
 211              		.loc 1 431 3 view .LVU47
 432:Drivers/STM32F4xx_HAL_Driver/Src/stm32f4xx_hal_dac.c ****   
 433:Drivers/STM32F4xx_HAL_Driver/Src/stm32f4xx_hal_dac.c ****   /* Check the parameters */
 434:Drivers/STM32F4xx_HAL_Driver/Src/stm32f4xx_hal_dac.c ****   assert_param(IS_DAC_CHANNEL(Channel));
 212              		.loc 1 434 3 view .LVU48
 435:Drivers/STM32F4xx_HAL_Driver/Src/stm32f4xx_hal_dac.c ****   
 436:Drivers/STM32F4xx_HAL_Driver/Src/stm32f4xx_hal_dac.c ****   /* Process locked */
 437:Drivers/STM32F4xx_HAL_Driver/Src/stm32f4xx_hal_dac.c ****   __HAL_LOCK(hdac);
 213              		.loc 1 437 3 view .LVU49
 214              		.loc 1 437 3 view .LVU50
 215 0000 4379     		ldrb	r3, [r0, #5]	@ zero_extendqisi2
 216 0002 012B     		cmp	r3, #1
ARM GAS  /tmp/ccSfSgjJ.s 			page 13


 217 0004 31D0     		beq	.L23
 430:Drivers/STM32F4xx_HAL_Driver/Src/stm32f4xx_hal_dac.c ****   uint32_t tmp1 = 0U, tmp2 = 0U;
 218              		.loc 1 430 1 is_stmt 0 discriminator 2 view .LVU51
 219 0006 10B4     		push	{r4}
 220              	.LCFI4:
 221              		.cfi_def_cfa_offset 4
 222              		.cfi_offset 4, -4
 223              		.loc 1 437 3 is_stmt 1 discriminator 2 view .LVU52
 224 0008 0123     		movs	r3, #1
 225 000a 4371     		strb	r3, [r0, #5]
 438:Drivers/STM32F4xx_HAL_Driver/Src/stm32f4xx_hal_dac.c ****   
 439:Drivers/STM32F4xx_HAL_Driver/Src/stm32f4xx_hal_dac.c ****   /* Change DAC state */
 440:Drivers/STM32F4xx_HAL_Driver/Src/stm32f4xx_hal_dac.c ****   hdac->State = HAL_DAC_STATE_BUSY;
 226              		.loc 1 440 3 discriminator 2 view .LVU53
 227              		.loc 1 440 15 is_stmt 0 discriminator 2 view .LVU54
 228 000c 0222     		movs	r2, #2
 229 000e 0271     		strb	r2, [r0, #4]
 441:Drivers/STM32F4xx_HAL_Driver/Src/stm32f4xx_hal_dac.c ****   
 442:Drivers/STM32F4xx_HAL_Driver/Src/stm32f4xx_hal_dac.c ****   /* Enable the Peripheral */
 443:Drivers/STM32F4xx_HAL_Driver/Src/stm32f4xx_hal_dac.c ****   __HAL_DAC_ENABLE(hdac, Channel);
 230              		.loc 1 443 3 is_stmt 1 discriminator 2 view .LVU55
 231 0010 0468     		ldr	r4, [r0]
 232 0012 2268     		ldr	r2, [r4]
 233 0014 8B40     		lsls	r3, r3, r1
 234 0016 1343     		orrs	r3, r3, r2
 235 0018 2360     		str	r3, [r4]
 444:Drivers/STM32F4xx_HAL_Driver/Src/stm32f4xx_hal_dac.c ****   
 445:Drivers/STM32F4xx_HAL_Driver/Src/stm32f4xx_hal_dac.c ****   if(Channel == DAC_CHANNEL_1)
 236              		.loc 1 445 3 discriminator 2 view .LVU56
 237              		.loc 1 445 5 is_stmt 0 discriminator 2 view .LVU57
 238 001a B1B9     		cbnz	r1, .L21
 446:Drivers/STM32F4xx_HAL_Driver/Src/stm32f4xx_hal_dac.c ****   {
 447:Drivers/STM32F4xx_HAL_Driver/Src/stm32f4xx_hal_dac.c ****     tmp1 = hdac->Instance->CR & DAC_CR_TEN1;
 239              		.loc 1 447 5 is_stmt 1 view .LVU58
 240              		.loc 1 447 16 is_stmt 0 view .LVU59
 241 001c 0268     		ldr	r2, [r0]
 242              		.loc 1 447 26 view .LVU60
 243 001e 1168     		ldr	r1, [r2]
 244              	.LVL13:
 448:Drivers/STM32F4xx_HAL_Driver/Src/stm32f4xx_hal_dac.c ****     tmp2 = hdac->Instance->CR & DAC_CR_TSEL1;
 245              		.loc 1 448 5 is_stmt 1 view .LVU61
 246              		.loc 1 448 26 is_stmt 0 view .LVU62
 247 0020 1368     		ldr	r3, [r2]
 248              		.loc 1 448 10 view .LVU63
 249 0022 03F03803 		and	r3, r3, #56
 250              	.LVL14:
 449:Drivers/STM32F4xx_HAL_Driver/Src/stm32f4xx_hal_dac.c ****     /* Check if software trigger enabled */
 450:Drivers/STM32F4xx_HAL_Driver/Src/stm32f4xx_hal_dac.c ****     if((tmp1 ==  DAC_CR_TEN1) && (tmp2 ==  DAC_CR_TSEL1))
 251              		.loc 1 450 5 is_stmt 1 view .LVU64
 252              		.loc 1 450 7 is_stmt 0 view .LVU65
 253 0026 11F0040F 		tst	r1, #4
 254 002a 01D0     		beq	.L22
 255              		.loc 1 450 31 discriminator 1 view .LVU66
 256 002c 382B     		cmp	r3, #56
 257 002e 07D0     		beq	.L28
 258              	.LVL15:
 259              	.L22:
ARM GAS  /tmp/ccSfSgjJ.s 			page 14


 451:Drivers/STM32F4xx_HAL_Driver/Src/stm32f4xx_hal_dac.c ****     {
 452:Drivers/STM32F4xx_HAL_Driver/Src/stm32f4xx_hal_dac.c ****       /* Enable the selected DAC software conversion */
 453:Drivers/STM32F4xx_HAL_Driver/Src/stm32f4xx_hal_dac.c ****       hdac->Instance->SWTRIGR |= (uint32_t)DAC_SWTRIGR_SWTRIG1;
 454:Drivers/STM32F4xx_HAL_Driver/Src/stm32f4xx_hal_dac.c ****     }
 455:Drivers/STM32F4xx_HAL_Driver/Src/stm32f4xx_hal_dac.c ****   }
 456:Drivers/STM32F4xx_HAL_Driver/Src/stm32f4xx_hal_dac.c ****   else
 457:Drivers/STM32F4xx_HAL_Driver/Src/stm32f4xx_hal_dac.c ****   {
 458:Drivers/STM32F4xx_HAL_Driver/Src/stm32f4xx_hal_dac.c ****     tmp1 = hdac->Instance->CR & DAC_CR_TEN2;
 459:Drivers/STM32F4xx_HAL_Driver/Src/stm32f4xx_hal_dac.c ****     tmp2 = hdac->Instance->CR & DAC_CR_TSEL2;    
 460:Drivers/STM32F4xx_HAL_Driver/Src/stm32f4xx_hal_dac.c ****     /* Check if software trigger enabled */
 461:Drivers/STM32F4xx_HAL_Driver/Src/stm32f4xx_hal_dac.c ****     if((tmp1 == DAC_CR_TEN2) && (tmp2 == DAC_CR_TSEL2))
 462:Drivers/STM32F4xx_HAL_Driver/Src/stm32f4xx_hal_dac.c ****     {
 463:Drivers/STM32F4xx_HAL_Driver/Src/stm32f4xx_hal_dac.c ****       /* Enable the selected DAC software conversion*/
 464:Drivers/STM32F4xx_HAL_Driver/Src/stm32f4xx_hal_dac.c ****       hdac->Instance->SWTRIGR |= (uint32_t)DAC_SWTRIGR_SWTRIG2;
 465:Drivers/STM32F4xx_HAL_Driver/Src/stm32f4xx_hal_dac.c ****     }
 466:Drivers/STM32F4xx_HAL_Driver/Src/stm32f4xx_hal_dac.c ****   }
 467:Drivers/STM32F4xx_HAL_Driver/Src/stm32f4xx_hal_dac.c ****   
 468:Drivers/STM32F4xx_HAL_Driver/Src/stm32f4xx_hal_dac.c ****   /* Change DAC state */
 469:Drivers/STM32F4xx_HAL_Driver/Src/stm32f4xx_hal_dac.c ****   hdac->State = HAL_DAC_STATE_READY;
 260              		.loc 1 469 3 is_stmt 1 view .LVU67
 261              		.loc 1 469 15 is_stmt 0 view .LVU68
 262 0030 0123     		movs	r3, #1
 263 0032 0371     		strb	r3, [r0, #4]
 470:Drivers/STM32F4xx_HAL_Driver/Src/stm32f4xx_hal_dac.c ****   
 471:Drivers/STM32F4xx_HAL_Driver/Src/stm32f4xx_hal_dac.c ****   /* Process unlocked */
 472:Drivers/STM32F4xx_HAL_Driver/Src/stm32f4xx_hal_dac.c ****   __HAL_UNLOCK(hdac);
 264              		.loc 1 472 3 is_stmt 1 view .LVU69
 265              		.loc 1 472 3 view .LVU70
 266 0034 0023     		movs	r3, #0
 267 0036 4371     		strb	r3, [r0, #5]
 473:Drivers/STM32F4xx_HAL_Driver/Src/stm32f4xx_hal_dac.c ****     
 474:Drivers/STM32F4xx_HAL_Driver/Src/stm32f4xx_hal_dac.c ****   /* Return function status */
 475:Drivers/STM32F4xx_HAL_Driver/Src/stm32f4xx_hal_dac.c ****   return HAL_OK;
 268              		.loc 1 475 3 view .LVU71
 269              		.loc 1 475 10 is_stmt 0 view .LVU72
 270 0038 1846     		mov	r0, r3
 271              	.LVL16:
 476:Drivers/STM32F4xx_HAL_Driver/Src/stm32f4xx_hal_dac.c **** }
 272              		.loc 1 476 1 view .LVU73
 273 003a 5DF8044B 		ldr	r4, [sp], #4
 274              	.LCFI5:
 275              		.cfi_remember_state
 276              		.cfi_restore 4
 277              		.cfi_def_cfa_offset 0
 278 003e 7047     		bx	lr
 279              	.LVL17:
 280              	.L28:
 281              	.LCFI6:
 282              		.cfi_restore_state
 453:Drivers/STM32F4xx_HAL_Driver/Src/stm32f4xx_hal_dac.c ****     }
 283              		.loc 1 453 7 is_stmt 1 view .LVU74
 453:Drivers/STM32F4xx_HAL_Driver/Src/stm32f4xx_hal_dac.c ****     }
 284              		.loc 1 453 31 is_stmt 0 view .LVU75
 285 0040 5368     		ldr	r3, [r2, #4]
 286              	.LVL18:
 453:Drivers/STM32F4xx_HAL_Driver/Src/stm32f4xx_hal_dac.c ****     }
 287              		.loc 1 453 31 view .LVU76
ARM GAS  /tmp/ccSfSgjJ.s 			page 15


 288 0042 43F00103 		orr	r3, r3, #1
 289 0046 5360     		str	r3, [r2, #4]
 290 0048 F2E7     		b	.L22
 291              	.LVL19:
 292              	.L21:
 458:Drivers/STM32F4xx_HAL_Driver/Src/stm32f4xx_hal_dac.c ****     tmp2 = hdac->Instance->CR & DAC_CR_TSEL2;    
 293              		.loc 1 458 5 is_stmt 1 view .LVU77
 458:Drivers/STM32F4xx_HAL_Driver/Src/stm32f4xx_hal_dac.c ****     tmp2 = hdac->Instance->CR & DAC_CR_TSEL2;    
 294              		.loc 1 458 16 is_stmt 0 view .LVU78
 295 004a 0268     		ldr	r2, [r0]
 458:Drivers/STM32F4xx_HAL_Driver/Src/stm32f4xx_hal_dac.c ****     tmp2 = hdac->Instance->CR & DAC_CR_TSEL2;    
 296              		.loc 1 458 26 view .LVU79
 297 004c 1168     		ldr	r1, [r2]
 298              	.LVL20:
 459:Drivers/STM32F4xx_HAL_Driver/Src/stm32f4xx_hal_dac.c ****     /* Check if software trigger enabled */
 299              		.loc 1 459 5 is_stmt 1 view .LVU80
 459:Drivers/STM32F4xx_HAL_Driver/Src/stm32f4xx_hal_dac.c ****     /* Check if software trigger enabled */
 300              		.loc 1 459 26 is_stmt 0 view .LVU81
 301 004e 1368     		ldr	r3, [r2]
 459:Drivers/STM32F4xx_HAL_Driver/Src/stm32f4xx_hal_dac.c ****     /* Check if software trigger enabled */
 302              		.loc 1 459 10 view .LVU82
 303 0050 03F46013 		and	r3, r3, #3670016
 304              	.LVL21:
 461:Drivers/STM32F4xx_HAL_Driver/Src/stm32f4xx_hal_dac.c ****     {
 305              		.loc 1 461 5 is_stmt 1 view .LVU83
 461:Drivers/STM32F4xx_HAL_Driver/Src/stm32f4xx_hal_dac.c ****     {
 306              		.loc 1 461 7 is_stmt 0 view .LVU84
 307 0054 11F4802F 		tst	r1, #262144
 308 0058 EAD0     		beq	.L22
 461:Drivers/STM32F4xx_HAL_Driver/Src/stm32f4xx_hal_dac.c ****     {
 309              		.loc 1 461 30 discriminator 1 view .LVU85
 310 005a B3F5601F 		cmp	r3, #3670016
 311 005e E7D1     		bne	.L22
 464:Drivers/STM32F4xx_HAL_Driver/Src/stm32f4xx_hal_dac.c ****     }
 312              		.loc 1 464 7 is_stmt 1 view .LVU86
 464:Drivers/STM32F4xx_HAL_Driver/Src/stm32f4xx_hal_dac.c ****     }
 313              		.loc 1 464 31 is_stmt 0 view .LVU87
 314 0060 5368     		ldr	r3, [r2, #4]
 315              	.LVL22:
 464:Drivers/STM32F4xx_HAL_Driver/Src/stm32f4xx_hal_dac.c ****     }
 316              		.loc 1 464 31 view .LVU88
 317 0062 43F00203 		orr	r3, r3, #2
 318 0066 5360     		str	r3, [r2, #4]
 319 0068 E2E7     		b	.L22
 320              	.LVL23:
 321              	.L23:
 322              	.LCFI7:
 323              		.cfi_def_cfa_offset 0
 324              		.cfi_restore 4
 437:Drivers/STM32F4xx_HAL_Driver/Src/stm32f4xx_hal_dac.c ****   
 325              		.loc 1 437 3 view .LVU89
 326 006a 0220     		movs	r0, #2
 327              	.LVL24:
 328              		.loc 1 476 1 view .LVU90
 329 006c 7047     		bx	lr
 330              		.cfi_endproc
 331              	.LFE134:
ARM GAS  /tmp/ccSfSgjJ.s 			page 16


 333              		.section	.text.HAL_DAC_Stop,"ax",%progbits
 334              		.align	1
 335              		.global	HAL_DAC_Stop
 336              		.syntax unified
 337              		.thumb
 338              		.thumb_func
 339              		.fpu fpv4-sp-d16
 341              	HAL_DAC_Stop:
 342              	.LVL25:
 343              	.LFB135:
 477:Drivers/STM32F4xx_HAL_Driver/Src/stm32f4xx_hal_dac.c **** 
 478:Drivers/STM32F4xx_HAL_Driver/Src/stm32f4xx_hal_dac.c **** /**
 479:Drivers/STM32F4xx_HAL_Driver/Src/stm32f4xx_hal_dac.c ****   * @brief  Disables DAC and stop conversion of channel.
 480:Drivers/STM32F4xx_HAL_Driver/Src/stm32f4xx_hal_dac.c ****   * @param  hdac pointer to a DAC_HandleTypeDef structure that contains
 481:Drivers/STM32F4xx_HAL_Driver/Src/stm32f4xx_hal_dac.c ****   *         the configuration information for the specified DAC.
 482:Drivers/STM32F4xx_HAL_Driver/Src/stm32f4xx_hal_dac.c ****   * @param  Channel The selected DAC channel. 
 483:Drivers/STM32F4xx_HAL_Driver/Src/stm32f4xx_hal_dac.c ****   *          This parameter can be one of the following values:
 484:Drivers/STM32F4xx_HAL_Driver/Src/stm32f4xx_hal_dac.c ****   *            @arg DAC_CHANNEL_1: DAC Channel1 selected
 485:Drivers/STM32F4xx_HAL_Driver/Src/stm32f4xx_hal_dac.c ****   *            @arg DAC_CHANNEL_2: DAC Channel2 selected  
 486:Drivers/STM32F4xx_HAL_Driver/Src/stm32f4xx_hal_dac.c ****   * @retval HAL status
 487:Drivers/STM32F4xx_HAL_Driver/Src/stm32f4xx_hal_dac.c ****   */
 488:Drivers/STM32F4xx_HAL_Driver/Src/stm32f4xx_hal_dac.c **** HAL_StatusTypeDef HAL_DAC_Stop(DAC_HandleTypeDef* hdac, uint32_t Channel)
 489:Drivers/STM32F4xx_HAL_Driver/Src/stm32f4xx_hal_dac.c **** {
 344              		.loc 1 489 1 is_stmt 1 view -0
 345              		.cfi_startproc
 346              		@ args = 0, pretend = 0, frame = 0
 347              		@ frame_needed = 0, uses_anonymous_args = 0
 348              		@ link register save eliminated.
 349              		.loc 1 489 1 is_stmt 0 view .LVU92
 350 0000 10B4     		push	{r4}
 351              	.LCFI8:
 352              		.cfi_def_cfa_offset 4
 353              		.cfi_offset 4, -4
 490:Drivers/STM32F4xx_HAL_Driver/Src/stm32f4xx_hal_dac.c ****   /* Check the parameters */
 491:Drivers/STM32F4xx_HAL_Driver/Src/stm32f4xx_hal_dac.c ****   assert_param(IS_DAC_CHANNEL(Channel));
 354              		.loc 1 491 3 is_stmt 1 view .LVU93
 492:Drivers/STM32F4xx_HAL_Driver/Src/stm32f4xx_hal_dac.c ****   
 493:Drivers/STM32F4xx_HAL_Driver/Src/stm32f4xx_hal_dac.c ****   /* Disable the Peripheral */
 494:Drivers/STM32F4xx_HAL_Driver/Src/stm32f4xx_hal_dac.c ****   __HAL_DAC_DISABLE(hdac, Channel);
 355              		.loc 1 494 3 view .LVU94
 356 0002 0468     		ldr	r4, [r0]
 357 0004 2368     		ldr	r3, [r4]
 358 0006 0122     		movs	r2, #1
 359 0008 02FA01F1 		lsl	r1, r2, r1
 360              	.LVL26:
 361              		.loc 1 494 3 is_stmt 0 view .LVU95
 362 000c 23EA0103 		bic	r3, r3, r1
 363 0010 2360     		str	r3, [r4]
 495:Drivers/STM32F4xx_HAL_Driver/Src/stm32f4xx_hal_dac.c ****  
 496:Drivers/STM32F4xx_HAL_Driver/Src/stm32f4xx_hal_dac.c ****   /* Change DAC state */
 497:Drivers/STM32F4xx_HAL_Driver/Src/stm32f4xx_hal_dac.c ****   hdac->State = HAL_DAC_STATE_READY;
 364              		.loc 1 497 3 is_stmt 1 view .LVU96
 365              		.loc 1 497 15 is_stmt 0 view .LVU97
 366 0012 0271     		strb	r2, [r0, #4]
 498:Drivers/STM32F4xx_HAL_Driver/Src/stm32f4xx_hal_dac.c ****   
 499:Drivers/STM32F4xx_HAL_Driver/Src/stm32f4xx_hal_dac.c ****   /* Return function status */
 500:Drivers/STM32F4xx_HAL_Driver/Src/stm32f4xx_hal_dac.c ****   return HAL_OK;
ARM GAS  /tmp/ccSfSgjJ.s 			page 17


 367              		.loc 1 500 3 is_stmt 1 view .LVU98
 501:Drivers/STM32F4xx_HAL_Driver/Src/stm32f4xx_hal_dac.c **** }
 368              		.loc 1 501 1 is_stmt 0 view .LVU99
 369 0014 0020     		movs	r0, #0
 370              	.LVL27:
 371              		.loc 1 501 1 view .LVU100
 372 0016 5DF8044B 		ldr	r4, [sp], #4
 373              	.LCFI9:
 374              		.cfi_restore 4
 375              		.cfi_def_cfa_offset 0
 376 001a 7047     		bx	lr
 377              		.cfi_endproc
 378              	.LFE135:
 380              		.section	.text.HAL_DAC_Start_DMA,"ax",%progbits
 381              		.align	1
 382              		.global	HAL_DAC_Start_DMA
 383              		.syntax unified
 384              		.thumb
 385              		.thumb_func
 386              		.fpu fpv4-sp-d16
 388              	HAL_DAC_Start_DMA:
 389              	.LVL28:
 390              	.LFB136:
 502:Drivers/STM32F4xx_HAL_Driver/Src/stm32f4xx_hal_dac.c **** 
 503:Drivers/STM32F4xx_HAL_Driver/Src/stm32f4xx_hal_dac.c **** /**
 504:Drivers/STM32F4xx_HAL_Driver/Src/stm32f4xx_hal_dac.c ****   * @brief  Enables DAC and starts conversion of channel.
 505:Drivers/STM32F4xx_HAL_Driver/Src/stm32f4xx_hal_dac.c ****   * @param  hdac pointer to a DAC_HandleTypeDef structure that contains
 506:Drivers/STM32F4xx_HAL_Driver/Src/stm32f4xx_hal_dac.c ****   *         the configuration information for the specified DAC.
 507:Drivers/STM32F4xx_HAL_Driver/Src/stm32f4xx_hal_dac.c ****   * @param  Channel The selected DAC channel. 
 508:Drivers/STM32F4xx_HAL_Driver/Src/stm32f4xx_hal_dac.c ****   *          This parameter can be one of the following values:
 509:Drivers/STM32F4xx_HAL_Driver/Src/stm32f4xx_hal_dac.c ****   *            @arg DAC_CHANNEL_1: DAC Channel1 selected
 510:Drivers/STM32F4xx_HAL_Driver/Src/stm32f4xx_hal_dac.c ****   *            @arg DAC_CHANNEL_2: DAC Channel2 selected
 511:Drivers/STM32F4xx_HAL_Driver/Src/stm32f4xx_hal_dac.c ****   * @param  pData The destination peripheral Buffer address.
 512:Drivers/STM32F4xx_HAL_Driver/Src/stm32f4xx_hal_dac.c ****   * @param  Length The length of data to be transferred from memory to DAC peripheral
 513:Drivers/STM32F4xx_HAL_Driver/Src/stm32f4xx_hal_dac.c ****   * @param  Alignment Specifies the data alignment for DAC channel.
 514:Drivers/STM32F4xx_HAL_Driver/Src/stm32f4xx_hal_dac.c ****   *          This parameter can be one of the following values:
 515:Drivers/STM32F4xx_HAL_Driver/Src/stm32f4xx_hal_dac.c ****   *            @arg DAC_ALIGN_8B_R: 8bit right data alignment selected
 516:Drivers/STM32F4xx_HAL_Driver/Src/stm32f4xx_hal_dac.c ****   *            @arg DAC_ALIGN_12B_L: 12bit left data alignment selected
 517:Drivers/STM32F4xx_HAL_Driver/Src/stm32f4xx_hal_dac.c ****   *            @arg DAC_ALIGN_12B_R: 12bit right data alignment selected
 518:Drivers/STM32F4xx_HAL_Driver/Src/stm32f4xx_hal_dac.c ****   * @retval HAL status
 519:Drivers/STM32F4xx_HAL_Driver/Src/stm32f4xx_hal_dac.c ****   */
 520:Drivers/STM32F4xx_HAL_Driver/Src/stm32f4xx_hal_dac.c **** HAL_StatusTypeDef HAL_DAC_Start_DMA(DAC_HandleTypeDef* hdac, uint32_t Channel, uint32_t* pData, uin
 521:Drivers/STM32F4xx_HAL_Driver/Src/stm32f4xx_hal_dac.c **** {
 391              		.loc 1 521 1 is_stmt 1 view -0
 392              		.cfi_startproc
 393              		@ args = 4, pretend = 0, frame = 0
 394              		@ frame_needed = 0, uses_anonymous_args = 0
 395              		.loc 1 521 1 is_stmt 0 view .LVU102
 396 0000 F8B5     		push	{r3, r4, r5, r6, r7, lr}
 397              	.LCFI10:
 398              		.cfi_def_cfa_offset 24
 399              		.cfi_offset 3, -24
 400              		.cfi_offset 4, -20
 401              		.cfi_offset 5, -16
 402              		.cfi_offset 6, -12
 403              		.cfi_offset 7, -8
 404              		.cfi_offset 14, -4
ARM GAS  /tmp/ccSfSgjJ.s 			page 18


 405 0002 069C     		ldr	r4, [sp, #24]
 522:Drivers/STM32F4xx_HAL_Driver/Src/stm32f4xx_hal_dac.c ****   uint32_t tmpreg = 0U;
 406              		.loc 1 522 3 is_stmt 1 view .LVU103
 407              	.LVL29:
 523:Drivers/STM32F4xx_HAL_Driver/Src/stm32f4xx_hal_dac.c ****     
 524:Drivers/STM32F4xx_HAL_Driver/Src/stm32f4xx_hal_dac.c ****   /* Check the parameters */
 525:Drivers/STM32F4xx_HAL_Driver/Src/stm32f4xx_hal_dac.c ****   assert_param(IS_DAC_CHANNEL(Channel));
 408              		.loc 1 525 3 view .LVU104
 526:Drivers/STM32F4xx_HAL_Driver/Src/stm32f4xx_hal_dac.c ****   assert_param(IS_DAC_ALIGN(Alignment));
 409              		.loc 1 526 3 view .LVU105
 527:Drivers/STM32F4xx_HAL_Driver/Src/stm32f4xx_hal_dac.c ****   
 528:Drivers/STM32F4xx_HAL_Driver/Src/stm32f4xx_hal_dac.c ****   /* Process locked */
 529:Drivers/STM32F4xx_HAL_Driver/Src/stm32f4xx_hal_dac.c ****   __HAL_LOCK(hdac);
 410              		.loc 1 529 3 view .LVU106
 411              		.loc 1 529 3 view .LVU107
 412 0004 4679     		ldrb	r6, [r0, #5]	@ zero_extendqisi2
 413 0006 012E     		cmp	r6, #1
 414 0008 64D0     		beq	.L41
 415              		.loc 1 529 3 discriminator 2 view .LVU108
 416 000a 0126     		movs	r6, #1
 417 000c 4671     		strb	r6, [r0, #5]
 530:Drivers/STM32F4xx_HAL_Driver/Src/stm32f4xx_hal_dac.c ****   
 531:Drivers/STM32F4xx_HAL_Driver/Src/stm32f4xx_hal_dac.c ****   /* Change DAC state */
 532:Drivers/STM32F4xx_HAL_Driver/Src/stm32f4xx_hal_dac.c ****   hdac->State = HAL_DAC_STATE_BUSY;
 418              		.loc 1 532 3 discriminator 2 view .LVU109
 419              		.loc 1 532 15 is_stmt 0 discriminator 2 view .LVU110
 420 000e 0226     		movs	r6, #2
 421 0010 0671     		strb	r6, [r0, #4]
 533:Drivers/STM32F4xx_HAL_Driver/Src/stm32f4xx_hal_dac.c **** 
 534:Drivers/STM32F4xx_HAL_Driver/Src/stm32f4xx_hal_dac.c ****   if(Channel == DAC_CHANNEL_1)
 422              		.loc 1 534 3 is_stmt 1 discriminator 2 view .LVU111
 423              		.loc 1 534 5 is_stmt 0 discriminator 2 view .LVU112
 424 0012 0029     		cmp	r1, #0
 425 0014 35D1     		bne	.L33
 535:Drivers/STM32F4xx_HAL_Driver/Src/stm32f4xx_hal_dac.c ****   {
 536:Drivers/STM32F4xx_HAL_Driver/Src/stm32f4xx_hal_dac.c ****     /* Set the DMA transfer complete callback for channel1 */
 537:Drivers/STM32F4xx_HAL_Driver/Src/stm32f4xx_hal_dac.c ****     hdac->DMA_Handle1->XferCpltCallback = DAC_DMAConvCpltCh1;
 426              		.loc 1 537 5 is_stmt 1 view .LVU113
 427              		.loc 1 537 9 is_stmt 0 view .LVU114
 428 0016 8568     		ldr	r5, [r0, #8]
 429              		.loc 1 537 41 view .LVU115
 430 0018 2F4E     		ldr	r6, .L47
 431 001a EE63     		str	r6, [r5, #60]
 538:Drivers/STM32F4xx_HAL_Driver/Src/stm32f4xx_hal_dac.c **** 
 539:Drivers/STM32F4xx_HAL_Driver/Src/stm32f4xx_hal_dac.c ****     /* Set the DMA half transfer complete callback for channel1 */
 540:Drivers/STM32F4xx_HAL_Driver/Src/stm32f4xx_hal_dac.c ****     hdac->DMA_Handle1->XferHalfCpltCallback = DAC_DMAHalfConvCpltCh1;
 432              		.loc 1 540 5 is_stmt 1 view .LVU116
 433              		.loc 1 540 9 is_stmt 0 view .LVU117
 434 001c 8568     		ldr	r5, [r0, #8]
 435              		.loc 1 540 45 view .LVU118
 436 001e 2F4E     		ldr	r6, .L47+4
 437 0020 2E64     		str	r6, [r5, #64]
 541:Drivers/STM32F4xx_HAL_Driver/Src/stm32f4xx_hal_dac.c **** 
 542:Drivers/STM32F4xx_HAL_Driver/Src/stm32f4xx_hal_dac.c ****     /* Set the DMA error callback for channel1 */
 543:Drivers/STM32F4xx_HAL_Driver/Src/stm32f4xx_hal_dac.c ****     hdac->DMA_Handle1->XferErrorCallback = DAC_DMAErrorCh1;
 438              		.loc 1 543 5 is_stmt 1 view .LVU119
 439              		.loc 1 543 9 is_stmt 0 view .LVU120
ARM GAS  /tmp/ccSfSgjJ.s 			page 19


 440 0022 8568     		ldr	r5, [r0, #8]
 441              		.loc 1 543 42 view .LVU121
 442 0024 2E4E     		ldr	r6, .L47+8
 443 0026 EE64     		str	r6, [r5, #76]
 544:Drivers/STM32F4xx_HAL_Driver/Src/stm32f4xx_hal_dac.c **** 
 545:Drivers/STM32F4xx_HAL_Driver/Src/stm32f4xx_hal_dac.c ****     /* Enable the selected DAC channel1 DMA request */
 546:Drivers/STM32F4xx_HAL_Driver/Src/stm32f4xx_hal_dac.c ****     hdac->Instance->CR |= DAC_CR_DMAEN1;
 444              		.loc 1 546 5 is_stmt 1 view .LVU122
 445              		.loc 1 546 9 is_stmt 0 view .LVU123
 446 0028 0668     		ldr	r6, [r0]
 447              		.loc 1 546 24 view .LVU124
 448 002a 3568     		ldr	r5, [r6]
 449 002c 45F48055 		orr	r5, r5, #4096
 450 0030 3560     		str	r5, [r6]
 547:Drivers/STM32F4xx_HAL_Driver/Src/stm32f4xx_hal_dac.c ****     
 548:Drivers/STM32F4xx_HAL_Driver/Src/stm32f4xx_hal_dac.c ****     /* Case of use of channel 1 */
 549:Drivers/STM32F4xx_HAL_Driver/Src/stm32f4xx_hal_dac.c ****     switch(Alignment)
 451              		.loc 1 549 5 is_stmt 1 view .LVU125
 452 0032 042C     		cmp	r4, #4
 453 0034 1FD0     		beq	.L34
 454 0036 082C     		cmp	r4, #8
 455 0038 20D0     		beq	.L35
 456 003a CCB1     		cbz	r4, .L45
 522:Drivers/STM32F4xx_HAL_Driver/Src/stm32f4xx_hal_dac.c ****     
 457              		.loc 1 522 12 is_stmt 0 view .LVU126
 458 003c 0E46     		mov	r6, r1
 459              	.LVL30:
 460              	.L36:
 522:Drivers/STM32F4xx_HAL_Driver/Src/stm32f4xx_hal_dac.c ****     
 461              		.loc 1 522 12 view .LVU127
 462 003e 1746     		mov	r7, r2
 463 0040 0D46     		mov	r5, r1
 464 0042 0446     		mov	r4, r0
 465              	.LVL31:
 550:Drivers/STM32F4xx_HAL_Driver/Src/stm32f4xx_hal_dac.c ****     {
 551:Drivers/STM32F4xx_HAL_Driver/Src/stm32f4xx_hal_dac.c ****       case DAC_ALIGN_12B_R:
 552:Drivers/STM32F4xx_HAL_Driver/Src/stm32f4xx_hal_dac.c ****         /* Get DHR12R1 address */
 553:Drivers/STM32F4xx_HAL_Driver/Src/stm32f4xx_hal_dac.c ****         tmpreg = (uint32_t)&hdac->Instance->DHR12R1;
 554:Drivers/STM32F4xx_HAL_Driver/Src/stm32f4xx_hal_dac.c ****         break;
 555:Drivers/STM32F4xx_HAL_Driver/Src/stm32f4xx_hal_dac.c ****       case DAC_ALIGN_12B_L:
 556:Drivers/STM32F4xx_HAL_Driver/Src/stm32f4xx_hal_dac.c ****         /* Get DHR12L1 address */
 557:Drivers/STM32F4xx_HAL_Driver/Src/stm32f4xx_hal_dac.c ****         tmpreg = (uint32_t)&hdac->Instance->DHR12L1;
 558:Drivers/STM32F4xx_HAL_Driver/Src/stm32f4xx_hal_dac.c ****         break;
 559:Drivers/STM32F4xx_HAL_Driver/Src/stm32f4xx_hal_dac.c ****       case DAC_ALIGN_8B_R:
 560:Drivers/STM32F4xx_HAL_Driver/Src/stm32f4xx_hal_dac.c ****         /* Get DHR8R1 address */
 561:Drivers/STM32F4xx_HAL_Driver/Src/stm32f4xx_hal_dac.c ****         tmpreg = (uint32_t)&hdac->Instance->DHR8R1;
 562:Drivers/STM32F4xx_HAL_Driver/Src/stm32f4xx_hal_dac.c ****         break;
 563:Drivers/STM32F4xx_HAL_Driver/Src/stm32f4xx_hal_dac.c ****       default:
 564:Drivers/STM32F4xx_HAL_Driver/Src/stm32f4xx_hal_dac.c ****         break;
 565:Drivers/STM32F4xx_HAL_Driver/Src/stm32f4xx_hal_dac.c ****     }
 566:Drivers/STM32F4xx_HAL_Driver/Src/stm32f4xx_hal_dac.c ****   }
 567:Drivers/STM32F4xx_HAL_Driver/Src/stm32f4xx_hal_dac.c ****   else
 568:Drivers/STM32F4xx_HAL_Driver/Src/stm32f4xx_hal_dac.c ****   {
 569:Drivers/STM32F4xx_HAL_Driver/Src/stm32f4xx_hal_dac.c ****     /* Set the DMA transfer complete callback for channel2 */
 570:Drivers/STM32F4xx_HAL_Driver/Src/stm32f4xx_hal_dac.c ****     hdac->DMA_Handle2->XferCpltCallback = DAC_DMAConvCpltCh2;
 571:Drivers/STM32F4xx_HAL_Driver/Src/stm32f4xx_hal_dac.c **** 
 572:Drivers/STM32F4xx_HAL_Driver/Src/stm32f4xx_hal_dac.c ****     /* Set the DMA half transfer complete callback for channel2 */
ARM GAS  /tmp/ccSfSgjJ.s 			page 20


 573:Drivers/STM32F4xx_HAL_Driver/Src/stm32f4xx_hal_dac.c ****     hdac->DMA_Handle2->XferHalfCpltCallback = DAC_DMAHalfConvCpltCh2;
 574:Drivers/STM32F4xx_HAL_Driver/Src/stm32f4xx_hal_dac.c **** 
 575:Drivers/STM32F4xx_HAL_Driver/Src/stm32f4xx_hal_dac.c ****     /* Set the DMA error callback for channel2 */
 576:Drivers/STM32F4xx_HAL_Driver/Src/stm32f4xx_hal_dac.c ****     hdac->DMA_Handle2->XferErrorCallback = DAC_DMAErrorCh2;
 577:Drivers/STM32F4xx_HAL_Driver/Src/stm32f4xx_hal_dac.c **** 
 578:Drivers/STM32F4xx_HAL_Driver/Src/stm32f4xx_hal_dac.c ****     /* Enable the selected DAC channel2 DMA request */
 579:Drivers/STM32F4xx_HAL_Driver/Src/stm32f4xx_hal_dac.c ****     hdac->Instance->CR |= DAC_CR_DMAEN2;
 580:Drivers/STM32F4xx_HAL_Driver/Src/stm32f4xx_hal_dac.c **** 
 581:Drivers/STM32F4xx_HAL_Driver/Src/stm32f4xx_hal_dac.c ****     /* Case of use of channel 2 */
 582:Drivers/STM32F4xx_HAL_Driver/Src/stm32f4xx_hal_dac.c ****     switch(Alignment)
 583:Drivers/STM32F4xx_HAL_Driver/Src/stm32f4xx_hal_dac.c ****     {
 584:Drivers/STM32F4xx_HAL_Driver/Src/stm32f4xx_hal_dac.c ****       case DAC_ALIGN_12B_R:
 585:Drivers/STM32F4xx_HAL_Driver/Src/stm32f4xx_hal_dac.c ****         /* Get DHR12R2 address */
 586:Drivers/STM32F4xx_HAL_Driver/Src/stm32f4xx_hal_dac.c ****         tmpreg = (uint32_t)&hdac->Instance->DHR12R2;
 587:Drivers/STM32F4xx_HAL_Driver/Src/stm32f4xx_hal_dac.c ****         break;
 588:Drivers/STM32F4xx_HAL_Driver/Src/stm32f4xx_hal_dac.c ****       case DAC_ALIGN_12B_L:
 589:Drivers/STM32F4xx_HAL_Driver/Src/stm32f4xx_hal_dac.c ****         /* Get DHR12L2 address */
 590:Drivers/STM32F4xx_HAL_Driver/Src/stm32f4xx_hal_dac.c ****         tmpreg = (uint32_t)&hdac->Instance->DHR12L2;
 591:Drivers/STM32F4xx_HAL_Driver/Src/stm32f4xx_hal_dac.c ****         break;
 592:Drivers/STM32F4xx_HAL_Driver/Src/stm32f4xx_hal_dac.c ****       case DAC_ALIGN_8B_R:
 593:Drivers/STM32F4xx_HAL_Driver/Src/stm32f4xx_hal_dac.c ****         /* Get DHR8R2 address */
 594:Drivers/STM32F4xx_HAL_Driver/Src/stm32f4xx_hal_dac.c ****         tmpreg = (uint32_t)&hdac->Instance->DHR8R2;
 595:Drivers/STM32F4xx_HAL_Driver/Src/stm32f4xx_hal_dac.c ****         break;
 596:Drivers/STM32F4xx_HAL_Driver/Src/stm32f4xx_hal_dac.c ****       default:
 597:Drivers/STM32F4xx_HAL_Driver/Src/stm32f4xx_hal_dac.c ****         break;
 598:Drivers/STM32F4xx_HAL_Driver/Src/stm32f4xx_hal_dac.c ****     }
 599:Drivers/STM32F4xx_HAL_Driver/Src/stm32f4xx_hal_dac.c ****   }
 600:Drivers/STM32F4xx_HAL_Driver/Src/stm32f4xx_hal_dac.c ****   
 601:Drivers/STM32F4xx_HAL_Driver/Src/stm32f4xx_hal_dac.c ****   /* Enable the DMA Stream */
 602:Drivers/STM32F4xx_HAL_Driver/Src/stm32f4xx_hal_dac.c ****   if(Channel == DAC_CHANNEL_1)
 466              		.loc 1 602 3 is_stmt 1 view .LVU128
 467              		.loc 1 602 5 is_stmt 0 view .LVU129
 468 0044 0029     		cmp	r1, #0
 469 0046 3AD1     		bne	.L39
 603:Drivers/STM32F4xx_HAL_Driver/Src/stm32f4xx_hal_dac.c ****   {
 604:Drivers/STM32F4xx_HAL_Driver/Src/stm32f4xx_hal_dac.c ****     /* Enable the DAC DMA underrun interrupt */
 605:Drivers/STM32F4xx_HAL_Driver/Src/stm32f4xx_hal_dac.c ****     __HAL_DAC_ENABLE_IT(hdac, DAC_IT_DMAUDR1);
 470              		.loc 1 605 5 is_stmt 1 view .LVU130
 471 0048 0168     		ldr	r1, [r0]
 472              	.LVL32:
 473              		.loc 1 605 5 is_stmt 0 view .LVU131
 474 004a 0A68     		ldr	r2, [r1]
 475              	.LVL33:
 476              		.loc 1 605 5 view .LVU132
 477 004c 42F40052 		orr	r2, r2, #8192
 478 0050 0A60     		str	r2, [r1]
 606:Drivers/STM32F4xx_HAL_Driver/Src/stm32f4xx_hal_dac.c ****     
 607:Drivers/STM32F4xx_HAL_Driver/Src/stm32f4xx_hal_dac.c ****     /* Enable the DMA Stream */
 608:Drivers/STM32F4xx_HAL_Driver/Src/stm32f4xx_hal_dac.c ****     HAL_DMA_Start_IT(hdac->DMA_Handle1, (uint32_t)pData, tmpreg, Length);
 479              		.loc 1 608 5 is_stmt 1 view .LVU133
 480 0052 3246     		mov	r2, r6
 481 0054 3946     		mov	r1, r7
 482 0056 8068     		ldr	r0, [r0, #8]
 483              	.LVL34:
 484              		.loc 1 608 5 is_stmt 0 view .LVU134
 485 0058 FFF7FEFF 		bl	HAL_DMA_Start_IT
 486              	.LVL35:
ARM GAS  /tmp/ccSfSgjJ.s 			page 21


 487              	.L40:
 609:Drivers/STM32F4xx_HAL_Driver/Src/stm32f4xx_hal_dac.c ****   } 
 610:Drivers/STM32F4xx_HAL_Driver/Src/stm32f4xx_hal_dac.c ****   else
 611:Drivers/STM32F4xx_HAL_Driver/Src/stm32f4xx_hal_dac.c ****   {
 612:Drivers/STM32F4xx_HAL_Driver/Src/stm32f4xx_hal_dac.c ****     /* Enable the DAC DMA underrun interrupt */
 613:Drivers/STM32F4xx_HAL_Driver/Src/stm32f4xx_hal_dac.c ****     __HAL_DAC_ENABLE_IT(hdac, DAC_IT_DMAUDR2);
 614:Drivers/STM32F4xx_HAL_Driver/Src/stm32f4xx_hal_dac.c ****     
 615:Drivers/STM32F4xx_HAL_Driver/Src/stm32f4xx_hal_dac.c ****     /* Enable the DMA Stream */
 616:Drivers/STM32F4xx_HAL_Driver/Src/stm32f4xx_hal_dac.c ****     HAL_DMA_Start_IT(hdac->DMA_Handle2, (uint32_t)pData, tmpreg, Length);
 617:Drivers/STM32F4xx_HAL_Driver/Src/stm32f4xx_hal_dac.c ****   }
 618:Drivers/STM32F4xx_HAL_Driver/Src/stm32f4xx_hal_dac.c ****   
 619:Drivers/STM32F4xx_HAL_Driver/Src/stm32f4xx_hal_dac.c ****   /* Enable the Peripheral */
 620:Drivers/STM32F4xx_HAL_Driver/Src/stm32f4xx_hal_dac.c ****   __HAL_DAC_ENABLE(hdac, Channel);
 488              		.loc 1 620 3 is_stmt 1 view .LVU135
 489 005c 2268     		ldr	r2, [r4]
 490 005e 1368     		ldr	r3, [r2]
 491 0060 0121     		movs	r1, #1
 492 0062 01FA05F5 		lsl	r5, r1, r5
 493              	.LVL36:
 494              		.loc 1 620 3 is_stmt 0 view .LVU136
 495 0066 1D43     		orrs	r5, r5, r3
 496 0068 1560     		str	r5, [r2]
 621:Drivers/STM32F4xx_HAL_Driver/Src/stm32f4xx_hal_dac.c ****   
 622:Drivers/STM32F4xx_HAL_Driver/Src/stm32f4xx_hal_dac.c ****   /* Process Unlocked */
 623:Drivers/STM32F4xx_HAL_Driver/Src/stm32f4xx_hal_dac.c ****   __HAL_UNLOCK(hdac);
 497              		.loc 1 623 3 is_stmt 1 view .LVU137
 498              		.loc 1 623 3 view .LVU138
 499 006a 0020     		movs	r0, #0
 500 006c 6071     		strb	r0, [r4, #5]
 624:Drivers/STM32F4xx_HAL_Driver/Src/stm32f4xx_hal_dac.c ****   
 625:Drivers/STM32F4xx_HAL_Driver/Src/stm32f4xx_hal_dac.c ****   /* Return function status */
 626:Drivers/STM32F4xx_HAL_Driver/Src/stm32f4xx_hal_dac.c ****   return HAL_OK;
 501              		.loc 1 626 3 view .LVU139
 502              	.LVL37:
 503              	.L32:
 627:Drivers/STM32F4xx_HAL_Driver/Src/stm32f4xx_hal_dac.c **** }
 504              		.loc 1 627 1 is_stmt 0 view .LVU140
 505 006e F8BD     		pop	{r3, r4, r5, r6, r7, pc}
 506              	.LVL38:
 507              	.L45:
 553:Drivers/STM32F4xx_HAL_Driver/Src/stm32f4xx_hal_dac.c ****         break;
 508              		.loc 1 553 9 is_stmt 1 view .LVU141
 553:Drivers/STM32F4xx_HAL_Driver/Src/stm32f4xx_hal_dac.c ****         break;
 509              		.loc 1 553 33 is_stmt 0 view .LVU142
 510 0070 0668     		ldr	r6, [r0]
 553:Drivers/STM32F4xx_HAL_Driver/Src/stm32f4xx_hal_dac.c ****         break;
 511              		.loc 1 553 28 view .LVU143
 512 0072 0836     		adds	r6, r6, #8
 513              	.LVL39:
 554:Drivers/STM32F4xx_HAL_Driver/Src/stm32f4xx_hal_dac.c ****       case DAC_ALIGN_12B_L:
 514              		.loc 1 554 9 is_stmt 1 view .LVU144
 515 0074 E3E7     		b	.L36
 516              	.LVL40:
 517              	.L34:
 557:Drivers/STM32F4xx_HAL_Driver/Src/stm32f4xx_hal_dac.c ****         break;
 518              		.loc 1 557 9 view .LVU145
 557:Drivers/STM32F4xx_HAL_Driver/Src/stm32f4xx_hal_dac.c ****         break;
ARM GAS  /tmp/ccSfSgjJ.s 			page 22


 519              		.loc 1 557 33 is_stmt 0 view .LVU146
 520 0076 0668     		ldr	r6, [r0]
 557:Drivers/STM32F4xx_HAL_Driver/Src/stm32f4xx_hal_dac.c ****         break;
 521              		.loc 1 557 28 view .LVU147
 522 0078 0C36     		adds	r6, r6, #12
 523              	.LVL41:
 558:Drivers/STM32F4xx_HAL_Driver/Src/stm32f4xx_hal_dac.c ****       case DAC_ALIGN_8B_R:
 524              		.loc 1 558 9 is_stmt 1 view .LVU148
 525 007a E0E7     		b	.L36
 526              	.LVL42:
 527              	.L35:
 561:Drivers/STM32F4xx_HAL_Driver/Src/stm32f4xx_hal_dac.c ****         break;
 528              		.loc 1 561 9 view .LVU149
 561:Drivers/STM32F4xx_HAL_Driver/Src/stm32f4xx_hal_dac.c ****         break;
 529              		.loc 1 561 33 is_stmt 0 view .LVU150
 530 007c 0668     		ldr	r6, [r0]
 561:Drivers/STM32F4xx_HAL_Driver/Src/stm32f4xx_hal_dac.c ****         break;
 531              		.loc 1 561 28 view .LVU151
 532 007e 1036     		adds	r6, r6, #16
 533              	.LVL43:
 562:Drivers/STM32F4xx_HAL_Driver/Src/stm32f4xx_hal_dac.c ****       default:
 534              		.loc 1 562 9 is_stmt 1 view .LVU152
 535 0080 DDE7     		b	.L36
 536              	.LVL44:
 537              	.L33:
 570:Drivers/STM32F4xx_HAL_Driver/Src/stm32f4xx_hal_dac.c **** 
 538              		.loc 1 570 5 view .LVU153
 570:Drivers/STM32F4xx_HAL_Driver/Src/stm32f4xx_hal_dac.c **** 
 539              		.loc 1 570 9 is_stmt 0 view .LVU154
 540 0082 C568     		ldr	r5, [r0, #12]
 570:Drivers/STM32F4xx_HAL_Driver/Src/stm32f4xx_hal_dac.c **** 
 541              		.loc 1 570 41 view .LVU155
 542 0084 174E     		ldr	r6, .L47+12
 543 0086 EE63     		str	r6, [r5, #60]
 573:Drivers/STM32F4xx_HAL_Driver/Src/stm32f4xx_hal_dac.c **** 
 544              		.loc 1 573 5 is_stmt 1 view .LVU156
 573:Drivers/STM32F4xx_HAL_Driver/Src/stm32f4xx_hal_dac.c **** 
 545              		.loc 1 573 9 is_stmt 0 view .LVU157
 546 0088 C568     		ldr	r5, [r0, #12]
 573:Drivers/STM32F4xx_HAL_Driver/Src/stm32f4xx_hal_dac.c **** 
 547              		.loc 1 573 45 view .LVU158
 548 008a 174E     		ldr	r6, .L47+16
 549 008c 2E64     		str	r6, [r5, #64]
 576:Drivers/STM32F4xx_HAL_Driver/Src/stm32f4xx_hal_dac.c **** 
 550              		.loc 1 576 5 is_stmt 1 view .LVU159
 576:Drivers/STM32F4xx_HAL_Driver/Src/stm32f4xx_hal_dac.c **** 
 551              		.loc 1 576 9 is_stmt 0 view .LVU160
 552 008e C568     		ldr	r5, [r0, #12]
 576:Drivers/STM32F4xx_HAL_Driver/Src/stm32f4xx_hal_dac.c **** 
 553              		.loc 1 576 42 view .LVU161
 554 0090 164E     		ldr	r6, .L47+20
 555 0092 EE64     		str	r6, [r5, #76]
 579:Drivers/STM32F4xx_HAL_Driver/Src/stm32f4xx_hal_dac.c **** 
 556              		.loc 1 579 5 is_stmt 1 view .LVU162
 579:Drivers/STM32F4xx_HAL_Driver/Src/stm32f4xx_hal_dac.c **** 
 557              		.loc 1 579 9 is_stmt 0 view .LVU163
 558 0094 0668     		ldr	r6, [r0]
ARM GAS  /tmp/ccSfSgjJ.s 			page 23


 579:Drivers/STM32F4xx_HAL_Driver/Src/stm32f4xx_hal_dac.c **** 
 559              		.loc 1 579 24 view .LVU164
 560 0096 3568     		ldr	r5, [r6]
 561 0098 45F08055 		orr	r5, r5, #268435456
 562 009c 3560     		str	r5, [r6]
 582:Drivers/STM32F4xx_HAL_Driver/Src/stm32f4xx_hal_dac.c ****     {
 563              		.loc 1 582 5 is_stmt 1 view .LVU165
 564 009e 042C     		cmp	r4, #4
 565 00a0 07D0     		beq	.L37
 566 00a2 082C     		cmp	r4, #8
 567 00a4 08D0     		beq	.L38
 568 00a6 0CB1     		cbz	r4, .L46
 522:Drivers/STM32F4xx_HAL_Driver/Src/stm32f4xx_hal_dac.c ****     
 569              		.loc 1 522 12 is_stmt 0 view .LVU166
 570 00a8 0026     		movs	r6, #0
 571 00aa C8E7     		b	.L36
 572              	.L46:
 586:Drivers/STM32F4xx_HAL_Driver/Src/stm32f4xx_hal_dac.c ****         break;
 573              		.loc 1 586 9 is_stmt 1 view .LVU167
 586:Drivers/STM32F4xx_HAL_Driver/Src/stm32f4xx_hal_dac.c ****         break;
 574              		.loc 1 586 33 is_stmt 0 view .LVU168
 575 00ac 0668     		ldr	r6, [r0]
 586:Drivers/STM32F4xx_HAL_Driver/Src/stm32f4xx_hal_dac.c ****         break;
 576              		.loc 1 586 28 view .LVU169
 577 00ae 1436     		adds	r6, r6, #20
 578              	.LVL45:
 587:Drivers/STM32F4xx_HAL_Driver/Src/stm32f4xx_hal_dac.c ****       case DAC_ALIGN_12B_L:
 579              		.loc 1 587 9 is_stmt 1 view .LVU170
 580 00b0 C5E7     		b	.L36
 581              	.LVL46:
 582              	.L37:
 590:Drivers/STM32F4xx_HAL_Driver/Src/stm32f4xx_hal_dac.c ****         break;
 583              		.loc 1 590 9 view .LVU171
 590:Drivers/STM32F4xx_HAL_Driver/Src/stm32f4xx_hal_dac.c ****         break;
 584              		.loc 1 590 33 is_stmt 0 view .LVU172
 585 00b2 0668     		ldr	r6, [r0]
 590:Drivers/STM32F4xx_HAL_Driver/Src/stm32f4xx_hal_dac.c ****         break;
 586              		.loc 1 590 28 view .LVU173
 587 00b4 1836     		adds	r6, r6, #24
 588              	.LVL47:
 591:Drivers/STM32F4xx_HAL_Driver/Src/stm32f4xx_hal_dac.c ****       case DAC_ALIGN_8B_R:
 589              		.loc 1 591 9 is_stmt 1 view .LVU174
 590 00b6 C2E7     		b	.L36
 591              	.LVL48:
 592              	.L38:
 594:Drivers/STM32F4xx_HAL_Driver/Src/stm32f4xx_hal_dac.c ****         break;
 593              		.loc 1 594 9 view .LVU175
 594:Drivers/STM32F4xx_HAL_Driver/Src/stm32f4xx_hal_dac.c ****         break;
 594              		.loc 1 594 33 is_stmt 0 view .LVU176
 595 00b8 0668     		ldr	r6, [r0]
 594:Drivers/STM32F4xx_HAL_Driver/Src/stm32f4xx_hal_dac.c ****         break;
 596              		.loc 1 594 28 view .LVU177
 597 00ba 1C36     		adds	r6, r6, #28
 598              	.LVL49:
 595:Drivers/STM32F4xx_HAL_Driver/Src/stm32f4xx_hal_dac.c ****       default:
 599              		.loc 1 595 9 is_stmt 1 view .LVU178
 600 00bc BFE7     		b	.L36
ARM GAS  /tmp/ccSfSgjJ.s 			page 24


 601              	.L39:
 613:Drivers/STM32F4xx_HAL_Driver/Src/stm32f4xx_hal_dac.c ****     
 602              		.loc 1 613 5 view .LVU179
 603 00be 0168     		ldr	r1, [r0]
 604              	.LVL50:
 613:Drivers/STM32F4xx_HAL_Driver/Src/stm32f4xx_hal_dac.c ****     
 605              		.loc 1 613 5 is_stmt 0 view .LVU180
 606 00c0 0A68     		ldr	r2, [r1]
 607              	.LVL51:
 613:Drivers/STM32F4xx_HAL_Driver/Src/stm32f4xx_hal_dac.c ****     
 608              		.loc 1 613 5 view .LVU181
 609 00c2 42F00052 		orr	r2, r2, #536870912
 610 00c6 0A60     		str	r2, [r1]
 616:Drivers/STM32F4xx_HAL_Driver/Src/stm32f4xx_hal_dac.c ****   }
 611              		.loc 1 616 5 is_stmt 1 view .LVU182
 612 00c8 3246     		mov	r2, r6
 613 00ca 3946     		mov	r1, r7
 614 00cc C068     		ldr	r0, [r0, #12]
 615              	.LVL52:
 616:Drivers/STM32F4xx_HAL_Driver/Src/stm32f4xx_hal_dac.c ****   }
 616              		.loc 1 616 5 is_stmt 0 view .LVU183
 617 00ce FFF7FEFF 		bl	HAL_DMA_Start_IT
 618              	.LVL53:
 616:Drivers/STM32F4xx_HAL_Driver/Src/stm32f4xx_hal_dac.c ****   }
 619              		.loc 1 616 5 view .LVU184
 620 00d2 C3E7     		b	.L40
 621              	.LVL54:
 622              	.L41:
 529:Drivers/STM32F4xx_HAL_Driver/Src/stm32f4xx_hal_dac.c ****   
 623              		.loc 1 529 3 view .LVU185
 624 00d4 0220     		movs	r0, #2
 625              	.LVL55:
 529:Drivers/STM32F4xx_HAL_Driver/Src/stm32f4xx_hal_dac.c ****   
 626              		.loc 1 529 3 view .LVU186
 627 00d6 CAE7     		b	.L32
 628              	.L48:
 629              		.align	2
 630              	.L47:
 631 00d8 00000000 		.word	DAC_DMAConvCpltCh1
 632 00dc 00000000 		.word	DAC_DMAHalfConvCpltCh1
 633 00e0 00000000 		.word	DAC_DMAErrorCh1
 634 00e4 00000000 		.word	DAC_DMAConvCpltCh2
 635 00e8 00000000 		.word	DAC_DMAHalfConvCpltCh2
 636 00ec 00000000 		.word	DAC_DMAErrorCh2
 637              		.cfi_endproc
 638              	.LFE136:
 640              		.section	.text.HAL_DAC_Stop_DMA,"ax",%progbits
 641              		.align	1
 642              		.global	HAL_DAC_Stop_DMA
 643              		.syntax unified
 644              		.thumb
 645              		.thumb_func
 646              		.fpu fpv4-sp-d16
 648              	HAL_DAC_Stop_DMA:
 649              	.LVL56:
 650              	.LFB137:
 628:Drivers/STM32F4xx_HAL_Driver/Src/stm32f4xx_hal_dac.c **** 
ARM GAS  /tmp/ccSfSgjJ.s 			page 25


 629:Drivers/STM32F4xx_HAL_Driver/Src/stm32f4xx_hal_dac.c **** /**
 630:Drivers/STM32F4xx_HAL_Driver/Src/stm32f4xx_hal_dac.c ****   * @brief  Disables DAC and stop conversion of channel.
 631:Drivers/STM32F4xx_HAL_Driver/Src/stm32f4xx_hal_dac.c ****   * @param  hdac pointer to a DAC_HandleTypeDef structure that contains
 632:Drivers/STM32F4xx_HAL_Driver/Src/stm32f4xx_hal_dac.c ****   *         the configuration information for the specified DAC.
 633:Drivers/STM32F4xx_HAL_Driver/Src/stm32f4xx_hal_dac.c ****   * @param  Channel The selected DAC channel. 
 634:Drivers/STM32F4xx_HAL_Driver/Src/stm32f4xx_hal_dac.c ****   *          This parameter can be one of the following values:
 635:Drivers/STM32F4xx_HAL_Driver/Src/stm32f4xx_hal_dac.c ****   *            @arg DAC_CHANNEL_1: DAC Channel1 selected
 636:Drivers/STM32F4xx_HAL_Driver/Src/stm32f4xx_hal_dac.c ****   *            @arg DAC_CHANNEL_2: DAC Channel2 selected   
 637:Drivers/STM32F4xx_HAL_Driver/Src/stm32f4xx_hal_dac.c ****   * @retval HAL status
 638:Drivers/STM32F4xx_HAL_Driver/Src/stm32f4xx_hal_dac.c ****   */
 639:Drivers/STM32F4xx_HAL_Driver/Src/stm32f4xx_hal_dac.c **** HAL_StatusTypeDef HAL_DAC_Stop_DMA(DAC_HandleTypeDef* hdac, uint32_t Channel)
 640:Drivers/STM32F4xx_HAL_Driver/Src/stm32f4xx_hal_dac.c **** {
 651              		.loc 1 640 1 is_stmt 1 view -0
 652              		.cfi_startproc
 653              		@ args = 0, pretend = 0, frame = 0
 654              		@ frame_needed = 0, uses_anonymous_args = 0
 655              		.loc 1 640 1 is_stmt 0 view .LVU188
 656 0000 10B5     		push	{r4, lr}
 657              	.LCFI11:
 658              		.cfi_def_cfa_offset 8
 659              		.cfi_offset 4, -8
 660              		.cfi_offset 14, -4
 661 0002 0446     		mov	r4, r0
 641:Drivers/STM32F4xx_HAL_Driver/Src/stm32f4xx_hal_dac.c ****   HAL_StatusTypeDef status = HAL_OK;
 662              		.loc 1 641 3 is_stmt 1 view .LVU189
 663              	.LVL57:
 642:Drivers/STM32F4xx_HAL_Driver/Src/stm32f4xx_hal_dac.c **** 
 643:Drivers/STM32F4xx_HAL_Driver/Src/stm32f4xx_hal_dac.c ****   /* Check the parameters */
 644:Drivers/STM32F4xx_HAL_Driver/Src/stm32f4xx_hal_dac.c ****   assert_param(IS_DAC_CHANNEL(Channel));
 664              		.loc 1 644 3 view .LVU190
 645:Drivers/STM32F4xx_HAL_Driver/Src/stm32f4xx_hal_dac.c ****   
 646:Drivers/STM32F4xx_HAL_Driver/Src/stm32f4xx_hal_dac.c ****   /* Disable the selected DAC channel DMA request */
 647:Drivers/STM32F4xx_HAL_Driver/Src/stm32f4xx_hal_dac.c ****    hdac->Instance->CR &= ~(DAC_CR_DMAEN1 << Channel);
 665              		.loc 1 647 4 view .LVU191
 666              		.loc 1 647 8 is_stmt 0 view .LVU192
 667 0004 0068     		ldr	r0, [r0]
 668              	.LVL58:
 669              		.loc 1 647 23 view .LVU193
 670 0006 0368     		ldr	r3, [r0]
 671              		.loc 1 647 42 view .LVU194
 672 0008 4FF48052 		mov	r2, #4096
 673 000c 8A40     		lsls	r2, r2, r1
 674              		.loc 1 647 23 view .LVU195
 675 000e 23EA0203 		bic	r3, r3, r2
 676 0012 0360     		str	r3, [r0]
 648:Drivers/STM32F4xx_HAL_Driver/Src/stm32f4xx_hal_dac.c ****     
 649:Drivers/STM32F4xx_HAL_Driver/Src/stm32f4xx_hal_dac.c ****   /* Disable the Peripheral */
 650:Drivers/STM32F4xx_HAL_Driver/Src/stm32f4xx_hal_dac.c ****   __HAL_DAC_DISABLE(hdac, Channel);
 677              		.loc 1 650 3 is_stmt 1 view .LVU196
 678 0014 2068     		ldr	r0, [r4]
 679 0016 0368     		ldr	r3, [r0]
 680 0018 0122     		movs	r2, #1
 681 001a 8A40     		lsls	r2, r2, r1
 682 001c 23EA0203 		bic	r3, r3, r2
 683 0020 0360     		str	r3, [r0]
 651:Drivers/STM32F4xx_HAL_Driver/Src/stm32f4xx_hal_dac.c ****   
 652:Drivers/STM32F4xx_HAL_Driver/Src/stm32f4xx_hal_dac.c ****   /* Disable the DMA Channel */
ARM GAS  /tmp/ccSfSgjJ.s 			page 26


 653:Drivers/STM32F4xx_HAL_Driver/Src/stm32f4xx_hal_dac.c ****   /* Channel1 is used */
 654:Drivers/STM32F4xx_HAL_Driver/Src/stm32f4xx_hal_dac.c ****   if(Channel == DAC_CHANNEL_1)
 684              		.loc 1 654 3 view .LVU197
 685              		.loc 1 654 5 is_stmt 0 view .LVU198
 686 0022 31B9     		cbnz	r1, .L50
 655:Drivers/STM32F4xx_HAL_Driver/Src/stm32f4xx_hal_dac.c ****   { 
 656:Drivers/STM32F4xx_HAL_Driver/Src/stm32f4xx_hal_dac.c ****     status = HAL_DMA_Abort(hdac->DMA_Handle1);
 687              		.loc 1 656 5 is_stmt 1 view .LVU199
 688              		.loc 1 656 14 is_stmt 0 view .LVU200
 689 0024 A068     		ldr	r0, [r4, #8]
 690 0026 FFF7FEFF 		bl	HAL_DMA_Abort
 691              	.LVL59:
 692              	.L51:
 657:Drivers/STM32F4xx_HAL_Driver/Src/stm32f4xx_hal_dac.c ****   }
 658:Drivers/STM32F4xx_HAL_Driver/Src/stm32f4xx_hal_dac.c ****   else /* Channel2 is used for */
 659:Drivers/STM32F4xx_HAL_Driver/Src/stm32f4xx_hal_dac.c ****   { 
 660:Drivers/STM32F4xx_HAL_Driver/Src/stm32f4xx_hal_dac.c ****     status = HAL_DMA_Abort(hdac->DMA_Handle2); 
 661:Drivers/STM32F4xx_HAL_Driver/Src/stm32f4xx_hal_dac.c ****   }
 662:Drivers/STM32F4xx_HAL_Driver/Src/stm32f4xx_hal_dac.c **** 
 663:Drivers/STM32F4xx_HAL_Driver/Src/stm32f4xx_hal_dac.c ****   /* Check if DMA Channel effectively disabled */
 664:Drivers/STM32F4xx_HAL_Driver/Src/stm32f4xx_hal_dac.c ****   if(status != HAL_OK)
 693              		.loc 1 664 3 is_stmt 1 view .LVU201
 694              		.loc 1 664 5 is_stmt 0 view .LVU202
 695 002a 30B1     		cbz	r0, .L52
 665:Drivers/STM32F4xx_HAL_Driver/Src/stm32f4xx_hal_dac.c ****   {
 666:Drivers/STM32F4xx_HAL_Driver/Src/stm32f4xx_hal_dac.c ****     /* Update DAC state machine to error */
 667:Drivers/STM32F4xx_HAL_Driver/Src/stm32f4xx_hal_dac.c ****     hdac->State = HAL_DAC_STATE_ERROR;      
 696              		.loc 1 667 5 is_stmt 1 view .LVU203
 697              		.loc 1 667 17 is_stmt 0 view .LVU204
 698 002c 0423     		movs	r3, #4
 699 002e 2371     		strb	r3, [r4, #4]
 700              	.L53:
 668:Drivers/STM32F4xx_HAL_Driver/Src/stm32f4xx_hal_dac.c ****   }
 669:Drivers/STM32F4xx_HAL_Driver/Src/stm32f4xx_hal_dac.c ****   else
 670:Drivers/STM32F4xx_HAL_Driver/Src/stm32f4xx_hal_dac.c ****   {
 671:Drivers/STM32F4xx_HAL_Driver/Src/stm32f4xx_hal_dac.c ****     /* Change DAC state */
 672:Drivers/STM32F4xx_HAL_Driver/Src/stm32f4xx_hal_dac.c ****     hdac->State = HAL_DAC_STATE_READY;
 673:Drivers/STM32F4xx_HAL_Driver/Src/stm32f4xx_hal_dac.c ****   }
 674:Drivers/STM32F4xx_HAL_Driver/Src/stm32f4xx_hal_dac.c **** 
 675:Drivers/STM32F4xx_HAL_Driver/Src/stm32f4xx_hal_dac.c ****   /* Return function status */
 676:Drivers/STM32F4xx_HAL_Driver/Src/stm32f4xx_hal_dac.c ****   return status;
 701              		.loc 1 676 3 is_stmt 1 view .LVU205
 677:Drivers/STM32F4xx_HAL_Driver/Src/stm32f4xx_hal_dac.c **** }
 702              		.loc 1 677 1 is_stmt 0 view .LVU206
 703 0030 10BD     		pop	{r4, pc}
 704              	.LVL60:
 705              	.L50:
 660:Drivers/STM32F4xx_HAL_Driver/Src/stm32f4xx_hal_dac.c ****   }
 706              		.loc 1 660 5 is_stmt 1 view .LVU207
 660:Drivers/STM32F4xx_HAL_Driver/Src/stm32f4xx_hal_dac.c ****   }
 707              		.loc 1 660 14 is_stmt 0 view .LVU208
 708 0032 E068     		ldr	r0, [r4, #12]
 709 0034 FFF7FEFF 		bl	HAL_DMA_Abort
 710              	.LVL61:
 660:Drivers/STM32F4xx_HAL_Driver/Src/stm32f4xx_hal_dac.c ****   }
 711              		.loc 1 660 14 view .LVU209
 712 0038 F7E7     		b	.L51
ARM GAS  /tmp/ccSfSgjJ.s 			page 27


 713              	.L52:
 672:Drivers/STM32F4xx_HAL_Driver/Src/stm32f4xx_hal_dac.c ****   }
 714              		.loc 1 672 5 is_stmt 1 view .LVU210
 672:Drivers/STM32F4xx_HAL_Driver/Src/stm32f4xx_hal_dac.c ****   }
 715              		.loc 1 672 17 is_stmt 0 view .LVU211
 716 003a 0123     		movs	r3, #1
 717 003c 2371     		strb	r3, [r4, #4]
 718 003e F7E7     		b	.L53
 719              		.cfi_endproc
 720              	.LFE137:
 722              		.section	.text.HAL_DAC_GetValue,"ax",%progbits
 723              		.align	1
 724              		.global	HAL_DAC_GetValue
 725              		.syntax unified
 726              		.thumb
 727              		.thumb_func
 728              		.fpu fpv4-sp-d16
 730              	HAL_DAC_GetValue:
 731              	.LVL62:
 732              	.LFB138:
 678:Drivers/STM32F4xx_HAL_Driver/Src/stm32f4xx_hal_dac.c **** 
 679:Drivers/STM32F4xx_HAL_Driver/Src/stm32f4xx_hal_dac.c **** /**
 680:Drivers/STM32F4xx_HAL_Driver/Src/stm32f4xx_hal_dac.c ****   * @brief  Returns the last data output value of the selected DAC channel.
 681:Drivers/STM32F4xx_HAL_Driver/Src/stm32f4xx_hal_dac.c ****   * @param  hdac pointer to a DAC_HandleTypeDef structure that contains
 682:Drivers/STM32F4xx_HAL_Driver/Src/stm32f4xx_hal_dac.c ****   *         the configuration information for the specified DAC.
 683:Drivers/STM32F4xx_HAL_Driver/Src/stm32f4xx_hal_dac.c ****   * @param  Channel The selected DAC channel. 
 684:Drivers/STM32F4xx_HAL_Driver/Src/stm32f4xx_hal_dac.c ****   *          This parameter can be one of the following values:
 685:Drivers/STM32F4xx_HAL_Driver/Src/stm32f4xx_hal_dac.c ****   *            @arg DAC_CHANNEL_1: DAC Channel1 selected
 686:Drivers/STM32F4xx_HAL_Driver/Src/stm32f4xx_hal_dac.c ****   *            @arg DAC_CHANNEL_2: DAC Channel2 selected
 687:Drivers/STM32F4xx_HAL_Driver/Src/stm32f4xx_hal_dac.c ****   * @retval The selected DAC channel data output value.
 688:Drivers/STM32F4xx_HAL_Driver/Src/stm32f4xx_hal_dac.c ****   */
 689:Drivers/STM32F4xx_HAL_Driver/Src/stm32f4xx_hal_dac.c **** uint32_t HAL_DAC_GetValue(DAC_HandleTypeDef* hdac, uint32_t Channel)
 690:Drivers/STM32F4xx_HAL_Driver/Src/stm32f4xx_hal_dac.c **** {
 733              		.loc 1 690 1 is_stmt 1 view -0
 734              		.cfi_startproc
 735              		@ args = 0, pretend = 0, frame = 0
 736              		@ frame_needed = 0, uses_anonymous_args = 0
 737              		@ link register save eliminated.
 691:Drivers/STM32F4xx_HAL_Driver/Src/stm32f4xx_hal_dac.c ****   /* Check the parameters */
 692:Drivers/STM32F4xx_HAL_Driver/Src/stm32f4xx_hal_dac.c ****   assert_param(IS_DAC_CHANNEL(Channel));
 738              		.loc 1 692 3 view .LVU213
 693:Drivers/STM32F4xx_HAL_Driver/Src/stm32f4xx_hal_dac.c ****   
 694:Drivers/STM32F4xx_HAL_Driver/Src/stm32f4xx_hal_dac.c ****   /* Returns the DAC channel data output register value */
 695:Drivers/STM32F4xx_HAL_Driver/Src/stm32f4xx_hal_dac.c ****   if(Channel == DAC_CHANNEL_1)
 739              		.loc 1 695 3 view .LVU214
 740              		.loc 1 695 5 is_stmt 0 view .LVU215
 741 0000 11B9     		cbnz	r1, .L56
 696:Drivers/STM32F4xx_HAL_Driver/Src/stm32f4xx_hal_dac.c ****   {
 697:Drivers/STM32F4xx_HAL_Driver/Src/stm32f4xx_hal_dac.c ****     return hdac->Instance->DOR1;
 742              		.loc 1 697 5 is_stmt 1 view .LVU216
 743              		.loc 1 697 16 is_stmt 0 view .LVU217
 744 0002 0368     		ldr	r3, [r0]
 745              		.loc 1 697 26 view .LVU218
 746 0004 D86A     		ldr	r0, [r3, #44]
 747              	.LVL63:
 748              		.loc 1 697 26 view .LVU219
 749 0006 7047     		bx	lr
ARM GAS  /tmp/ccSfSgjJ.s 			page 28


 750              	.LVL64:
 751              	.L56:
 698:Drivers/STM32F4xx_HAL_Driver/Src/stm32f4xx_hal_dac.c ****   }
 699:Drivers/STM32F4xx_HAL_Driver/Src/stm32f4xx_hal_dac.c ****   else
 700:Drivers/STM32F4xx_HAL_Driver/Src/stm32f4xx_hal_dac.c ****   {
 701:Drivers/STM32F4xx_HAL_Driver/Src/stm32f4xx_hal_dac.c ****     return hdac->Instance->DOR2;
 752              		.loc 1 701 5 is_stmt 1 view .LVU220
 753              		.loc 1 701 16 is_stmt 0 view .LVU221
 754 0008 0368     		ldr	r3, [r0]
 755              		.loc 1 701 26 view .LVU222
 756 000a 186B     		ldr	r0, [r3, #48]
 757              	.LVL65:
 702:Drivers/STM32F4xx_HAL_Driver/Src/stm32f4xx_hal_dac.c ****   }
 703:Drivers/STM32F4xx_HAL_Driver/Src/stm32f4xx_hal_dac.c **** }
 758              		.loc 1 703 1 view .LVU223
 759 000c 7047     		bx	lr
 760              		.cfi_endproc
 761              	.LFE138:
 763              		.section	.text.HAL_DAC_ConvCpltCallbackCh1,"ax",%progbits
 764              		.align	1
 765              		.weak	HAL_DAC_ConvCpltCallbackCh1
 766              		.syntax unified
 767              		.thumb
 768              		.thumb_func
 769              		.fpu fpv4-sp-d16
 771              	HAL_DAC_ConvCpltCallbackCh1:
 772              	.LVL66:
 773              	.LFB140:
 704:Drivers/STM32F4xx_HAL_Driver/Src/stm32f4xx_hal_dac.c **** 
 705:Drivers/STM32F4xx_HAL_Driver/Src/stm32f4xx_hal_dac.c **** /**
 706:Drivers/STM32F4xx_HAL_Driver/Src/stm32f4xx_hal_dac.c ****   * @brief  Handles DAC interrupt request  
 707:Drivers/STM32F4xx_HAL_Driver/Src/stm32f4xx_hal_dac.c ****   * @param  hdac pointer to a DAC_HandleTypeDef structure that contains
 708:Drivers/STM32F4xx_HAL_Driver/Src/stm32f4xx_hal_dac.c ****   *         the configuration information for the specified DAC.
 709:Drivers/STM32F4xx_HAL_Driver/Src/stm32f4xx_hal_dac.c ****   * @retval None
 710:Drivers/STM32F4xx_HAL_Driver/Src/stm32f4xx_hal_dac.c ****   */
 711:Drivers/STM32F4xx_HAL_Driver/Src/stm32f4xx_hal_dac.c **** void HAL_DAC_IRQHandler(DAC_HandleTypeDef* hdac)
 712:Drivers/STM32F4xx_HAL_Driver/Src/stm32f4xx_hal_dac.c **** {
 713:Drivers/STM32F4xx_HAL_Driver/Src/stm32f4xx_hal_dac.c ****   /* Check underrun channel 1 flag */
 714:Drivers/STM32F4xx_HAL_Driver/Src/stm32f4xx_hal_dac.c ****   if(__HAL_DAC_GET_FLAG(hdac, DAC_FLAG_DMAUDR1))
 715:Drivers/STM32F4xx_HAL_Driver/Src/stm32f4xx_hal_dac.c ****   {
 716:Drivers/STM32F4xx_HAL_Driver/Src/stm32f4xx_hal_dac.c ****     /* Change DAC state to error state */
 717:Drivers/STM32F4xx_HAL_Driver/Src/stm32f4xx_hal_dac.c ****     hdac->State = HAL_DAC_STATE_ERROR;
 718:Drivers/STM32F4xx_HAL_Driver/Src/stm32f4xx_hal_dac.c ****     
 719:Drivers/STM32F4xx_HAL_Driver/Src/stm32f4xx_hal_dac.c ****     /* Set DAC error code to channel1 DMA underrun error */
 720:Drivers/STM32F4xx_HAL_Driver/Src/stm32f4xx_hal_dac.c ****     hdac->ErrorCode |= HAL_DAC_ERROR_DMAUNDERRUNCH1;
 721:Drivers/STM32F4xx_HAL_Driver/Src/stm32f4xx_hal_dac.c ****     
 722:Drivers/STM32F4xx_HAL_Driver/Src/stm32f4xx_hal_dac.c ****     /* Clear the underrun flag */
 723:Drivers/STM32F4xx_HAL_Driver/Src/stm32f4xx_hal_dac.c ****     __HAL_DAC_CLEAR_FLAG(hdac,DAC_FLAG_DMAUDR1);
 724:Drivers/STM32F4xx_HAL_Driver/Src/stm32f4xx_hal_dac.c ****     
 725:Drivers/STM32F4xx_HAL_Driver/Src/stm32f4xx_hal_dac.c ****     /* Disable the selected DAC channel1 DMA request */
 726:Drivers/STM32F4xx_HAL_Driver/Src/stm32f4xx_hal_dac.c ****     hdac->Instance->CR &= ~DAC_CR_DMAEN1;
 727:Drivers/STM32F4xx_HAL_Driver/Src/stm32f4xx_hal_dac.c ****     
 728:Drivers/STM32F4xx_HAL_Driver/Src/stm32f4xx_hal_dac.c ****     /* Error callback */ 
 729:Drivers/STM32F4xx_HAL_Driver/Src/stm32f4xx_hal_dac.c **** #if (USE_HAL_DAC_REGISTER_CALLBACKS == 1)
 730:Drivers/STM32F4xx_HAL_Driver/Src/stm32f4xx_hal_dac.c ****       hdac->DMAUnderrunCallbackCh1(hdac);
 731:Drivers/STM32F4xx_HAL_Driver/Src/stm32f4xx_hal_dac.c **** #else
 732:Drivers/STM32F4xx_HAL_Driver/Src/stm32f4xx_hal_dac.c ****     HAL_DAC_DMAUnderrunCallbackCh1(hdac);
ARM GAS  /tmp/ccSfSgjJ.s 			page 29


 733:Drivers/STM32F4xx_HAL_Driver/Src/stm32f4xx_hal_dac.c **** #endif /* USE_HAL_DAC_REGISTER_CALLBACKS */
 734:Drivers/STM32F4xx_HAL_Driver/Src/stm32f4xx_hal_dac.c ****   }
 735:Drivers/STM32F4xx_HAL_Driver/Src/stm32f4xx_hal_dac.c ****   /* Check underrun channel 2 flag */
 736:Drivers/STM32F4xx_HAL_Driver/Src/stm32f4xx_hal_dac.c ****   if(__HAL_DAC_GET_FLAG(hdac, DAC_FLAG_DMAUDR2))
 737:Drivers/STM32F4xx_HAL_Driver/Src/stm32f4xx_hal_dac.c ****   {
 738:Drivers/STM32F4xx_HAL_Driver/Src/stm32f4xx_hal_dac.c ****     /* Change DAC state to error state */
 739:Drivers/STM32F4xx_HAL_Driver/Src/stm32f4xx_hal_dac.c ****     hdac->State = HAL_DAC_STATE_ERROR;
 740:Drivers/STM32F4xx_HAL_Driver/Src/stm32f4xx_hal_dac.c ****     
 741:Drivers/STM32F4xx_HAL_Driver/Src/stm32f4xx_hal_dac.c ****     /* Set DAC error code to channel2 DMA underrun error */
 742:Drivers/STM32F4xx_HAL_Driver/Src/stm32f4xx_hal_dac.c ****     hdac->ErrorCode |= HAL_DAC_ERROR_DMAUNDERRUNCH2;
 743:Drivers/STM32F4xx_HAL_Driver/Src/stm32f4xx_hal_dac.c ****     
 744:Drivers/STM32F4xx_HAL_Driver/Src/stm32f4xx_hal_dac.c ****     /* Clear the underrun flag */
 745:Drivers/STM32F4xx_HAL_Driver/Src/stm32f4xx_hal_dac.c ****     __HAL_DAC_CLEAR_FLAG(hdac,DAC_FLAG_DMAUDR2);
 746:Drivers/STM32F4xx_HAL_Driver/Src/stm32f4xx_hal_dac.c ****     
 747:Drivers/STM32F4xx_HAL_Driver/Src/stm32f4xx_hal_dac.c ****     /* Disable the selected DAC channel1 DMA request */
 748:Drivers/STM32F4xx_HAL_Driver/Src/stm32f4xx_hal_dac.c ****     hdac->Instance->CR &= ~DAC_CR_DMAEN2;
 749:Drivers/STM32F4xx_HAL_Driver/Src/stm32f4xx_hal_dac.c ****     
 750:Drivers/STM32F4xx_HAL_Driver/Src/stm32f4xx_hal_dac.c ****     /* Error callback */ 
 751:Drivers/STM32F4xx_HAL_Driver/Src/stm32f4xx_hal_dac.c **** #if (USE_HAL_DAC_REGISTER_CALLBACKS == 1)
 752:Drivers/STM32F4xx_HAL_Driver/Src/stm32f4xx_hal_dac.c ****       hdac->DMAUnderrunCallbackCh2(hdac);
 753:Drivers/STM32F4xx_HAL_Driver/Src/stm32f4xx_hal_dac.c **** #else
 754:Drivers/STM32F4xx_HAL_Driver/Src/stm32f4xx_hal_dac.c ****     HAL_DACEx_DMAUnderrunCallbackCh2(hdac);
 755:Drivers/STM32F4xx_HAL_Driver/Src/stm32f4xx_hal_dac.c **** #endif /* USE_HAL_DAC_REGISTER_CALLBACKS */
 756:Drivers/STM32F4xx_HAL_Driver/Src/stm32f4xx_hal_dac.c ****   }
 757:Drivers/STM32F4xx_HAL_Driver/Src/stm32f4xx_hal_dac.c **** }
 758:Drivers/STM32F4xx_HAL_Driver/Src/stm32f4xx_hal_dac.c **** 
 759:Drivers/STM32F4xx_HAL_Driver/Src/stm32f4xx_hal_dac.c **** /**
 760:Drivers/STM32F4xx_HAL_Driver/Src/stm32f4xx_hal_dac.c ****   * @brief  Conversion complete callback in non blocking mode for Channel1 
 761:Drivers/STM32F4xx_HAL_Driver/Src/stm32f4xx_hal_dac.c ****   * @param  hdac pointer to a DAC_HandleTypeDef structure that contains
 762:Drivers/STM32F4xx_HAL_Driver/Src/stm32f4xx_hal_dac.c ****   *         the configuration information for the specified DAC.
 763:Drivers/STM32F4xx_HAL_Driver/Src/stm32f4xx_hal_dac.c ****   * @retval None
 764:Drivers/STM32F4xx_HAL_Driver/Src/stm32f4xx_hal_dac.c ****   */
 765:Drivers/STM32F4xx_HAL_Driver/Src/stm32f4xx_hal_dac.c **** __weak void HAL_DAC_ConvCpltCallbackCh1(DAC_HandleTypeDef* hdac)
 766:Drivers/STM32F4xx_HAL_Driver/Src/stm32f4xx_hal_dac.c **** {
 774              		.loc 1 766 1 is_stmt 1 view -0
 775              		.cfi_startproc
 776              		@ args = 0, pretend = 0, frame = 0
 777              		@ frame_needed = 0, uses_anonymous_args = 0
 778              		@ link register save eliminated.
 767:Drivers/STM32F4xx_HAL_Driver/Src/stm32f4xx_hal_dac.c ****   /* Prevent unused argument(s) compilation warning */
 768:Drivers/STM32F4xx_HAL_Driver/Src/stm32f4xx_hal_dac.c ****   UNUSED(hdac);
 779              		.loc 1 768 3 view .LVU225
 769:Drivers/STM32F4xx_HAL_Driver/Src/stm32f4xx_hal_dac.c ****   /* NOTE : This function Should not be modified, when the callback is needed,
 770:Drivers/STM32F4xx_HAL_Driver/Src/stm32f4xx_hal_dac.c ****             the HAL_DAC_ConvCpltCallback could be implemented in the user file
 771:Drivers/STM32F4xx_HAL_Driver/Src/stm32f4xx_hal_dac.c ****    */
 772:Drivers/STM32F4xx_HAL_Driver/Src/stm32f4xx_hal_dac.c **** }
 780              		.loc 1 772 1 is_stmt 0 view .LVU226
 781 0000 7047     		bx	lr
 782              		.cfi_endproc
 783              	.LFE140:
 785              		.section	.text.DAC_DMAConvCpltCh1,"ax",%progbits
 786              		.align	1
 787              		.syntax unified
 788              		.thumb
 789              		.thumb_func
 790              		.fpu fpv4-sp-d16
 792              	DAC_DMAConvCpltCh1:
ARM GAS  /tmp/ccSfSgjJ.s 			page 30


 793              	.LVL67:
 794              	.LFB148:
 773:Drivers/STM32F4xx_HAL_Driver/Src/stm32f4xx_hal_dac.c **** 
 774:Drivers/STM32F4xx_HAL_Driver/Src/stm32f4xx_hal_dac.c **** /**
 775:Drivers/STM32F4xx_HAL_Driver/Src/stm32f4xx_hal_dac.c ****   * @brief  Conversion half DMA transfer callback in non blocking mode for Channel1 
 776:Drivers/STM32F4xx_HAL_Driver/Src/stm32f4xx_hal_dac.c ****   * @param  hdac pointer to a DAC_HandleTypeDef structure that contains
 777:Drivers/STM32F4xx_HAL_Driver/Src/stm32f4xx_hal_dac.c ****   *         the configuration information for the specified DAC.
 778:Drivers/STM32F4xx_HAL_Driver/Src/stm32f4xx_hal_dac.c ****   * @retval None
 779:Drivers/STM32F4xx_HAL_Driver/Src/stm32f4xx_hal_dac.c ****   */
 780:Drivers/STM32F4xx_HAL_Driver/Src/stm32f4xx_hal_dac.c **** __weak void HAL_DAC_ConvHalfCpltCallbackCh1(DAC_HandleTypeDef* hdac)
 781:Drivers/STM32F4xx_HAL_Driver/Src/stm32f4xx_hal_dac.c **** {
 782:Drivers/STM32F4xx_HAL_Driver/Src/stm32f4xx_hal_dac.c ****   /* Prevent unused argument(s) compilation warning */
 783:Drivers/STM32F4xx_HAL_Driver/Src/stm32f4xx_hal_dac.c ****   UNUSED(hdac);
 784:Drivers/STM32F4xx_HAL_Driver/Src/stm32f4xx_hal_dac.c ****   /* NOTE : This function Should not be modified, when the callback is needed,
 785:Drivers/STM32F4xx_HAL_Driver/Src/stm32f4xx_hal_dac.c ****             the HAL_DAC_ConvHalfCpltCallbackCh1 could be implemented in the user file
 786:Drivers/STM32F4xx_HAL_Driver/Src/stm32f4xx_hal_dac.c ****    */
 787:Drivers/STM32F4xx_HAL_Driver/Src/stm32f4xx_hal_dac.c **** }
 788:Drivers/STM32F4xx_HAL_Driver/Src/stm32f4xx_hal_dac.c **** 
 789:Drivers/STM32F4xx_HAL_Driver/Src/stm32f4xx_hal_dac.c **** /**
 790:Drivers/STM32F4xx_HAL_Driver/Src/stm32f4xx_hal_dac.c ****   * @brief  Error DAC callback for Channel1.
 791:Drivers/STM32F4xx_HAL_Driver/Src/stm32f4xx_hal_dac.c ****   * @param  hdac pointer to a DAC_HandleTypeDef structure that contains
 792:Drivers/STM32F4xx_HAL_Driver/Src/stm32f4xx_hal_dac.c ****   *         the configuration information for the specified DAC.
 793:Drivers/STM32F4xx_HAL_Driver/Src/stm32f4xx_hal_dac.c ****   * @retval None
 794:Drivers/STM32F4xx_HAL_Driver/Src/stm32f4xx_hal_dac.c ****   */
 795:Drivers/STM32F4xx_HAL_Driver/Src/stm32f4xx_hal_dac.c **** __weak void HAL_DAC_ErrorCallbackCh1(DAC_HandleTypeDef *hdac)
 796:Drivers/STM32F4xx_HAL_Driver/Src/stm32f4xx_hal_dac.c **** {
 797:Drivers/STM32F4xx_HAL_Driver/Src/stm32f4xx_hal_dac.c ****   /* Prevent unused argument(s) compilation warning */
 798:Drivers/STM32F4xx_HAL_Driver/Src/stm32f4xx_hal_dac.c ****   UNUSED(hdac);
 799:Drivers/STM32F4xx_HAL_Driver/Src/stm32f4xx_hal_dac.c ****   /* NOTE : This function Should not be modified, when the callback is needed,
 800:Drivers/STM32F4xx_HAL_Driver/Src/stm32f4xx_hal_dac.c ****             the HAL_DAC_ErrorCallbackCh1 could be implemented in the user file
 801:Drivers/STM32F4xx_HAL_Driver/Src/stm32f4xx_hal_dac.c ****    */
 802:Drivers/STM32F4xx_HAL_Driver/Src/stm32f4xx_hal_dac.c **** }
 803:Drivers/STM32F4xx_HAL_Driver/Src/stm32f4xx_hal_dac.c **** 
 804:Drivers/STM32F4xx_HAL_Driver/Src/stm32f4xx_hal_dac.c **** /**
 805:Drivers/STM32F4xx_HAL_Driver/Src/stm32f4xx_hal_dac.c ****   * @brief  DMA underrun DAC callback for channel1.
 806:Drivers/STM32F4xx_HAL_Driver/Src/stm32f4xx_hal_dac.c ****   * @param  hdac pointer to a DAC_HandleTypeDef structure that contains
 807:Drivers/STM32F4xx_HAL_Driver/Src/stm32f4xx_hal_dac.c ****   *         the configuration information for the specified DAC.
 808:Drivers/STM32F4xx_HAL_Driver/Src/stm32f4xx_hal_dac.c ****   * @retval None
 809:Drivers/STM32F4xx_HAL_Driver/Src/stm32f4xx_hal_dac.c ****   */
 810:Drivers/STM32F4xx_HAL_Driver/Src/stm32f4xx_hal_dac.c **** __weak void HAL_DAC_DMAUnderrunCallbackCh1(DAC_HandleTypeDef *hdac)
 811:Drivers/STM32F4xx_HAL_Driver/Src/stm32f4xx_hal_dac.c **** {
 812:Drivers/STM32F4xx_HAL_Driver/Src/stm32f4xx_hal_dac.c ****   /* Prevent unused argument(s) compilation warning */
 813:Drivers/STM32F4xx_HAL_Driver/Src/stm32f4xx_hal_dac.c ****   UNUSED(hdac);
 814:Drivers/STM32F4xx_HAL_Driver/Src/stm32f4xx_hal_dac.c ****   /* NOTE : This function Should not be modified, when the callback is needed,
 815:Drivers/STM32F4xx_HAL_Driver/Src/stm32f4xx_hal_dac.c ****             the HAL_DAC_DMAUnderrunCallbackCh1 could be implemented in the user file
 816:Drivers/STM32F4xx_HAL_Driver/Src/stm32f4xx_hal_dac.c ****    */
 817:Drivers/STM32F4xx_HAL_Driver/Src/stm32f4xx_hal_dac.c **** }
 818:Drivers/STM32F4xx_HAL_Driver/Src/stm32f4xx_hal_dac.c **** 
 819:Drivers/STM32F4xx_HAL_Driver/Src/stm32f4xx_hal_dac.c **** /**
 820:Drivers/STM32F4xx_HAL_Driver/Src/stm32f4xx_hal_dac.c ****   * @}
 821:Drivers/STM32F4xx_HAL_Driver/Src/stm32f4xx_hal_dac.c ****   */
 822:Drivers/STM32F4xx_HAL_Driver/Src/stm32f4xx_hal_dac.c ****   
 823:Drivers/STM32F4xx_HAL_Driver/Src/stm32f4xx_hal_dac.c **** /** @defgroup DAC_Exported_Functions_Group3 Peripheral Control functions
 824:Drivers/STM32F4xx_HAL_Driver/Src/stm32f4xx_hal_dac.c ****  *  @brief   	Peripheral Control functions 
 825:Drivers/STM32F4xx_HAL_Driver/Src/stm32f4xx_hal_dac.c ****  *
 826:Drivers/STM32F4xx_HAL_Driver/Src/stm32f4xx_hal_dac.c **** @verbatim   
 827:Drivers/STM32F4xx_HAL_Driver/Src/stm32f4xx_hal_dac.c ****   ==============================================================================
ARM GAS  /tmp/ccSfSgjJ.s 			page 31


 828:Drivers/STM32F4xx_HAL_Driver/Src/stm32f4xx_hal_dac.c ****              ##### Peripheral Control functions #####
 829:Drivers/STM32F4xx_HAL_Driver/Src/stm32f4xx_hal_dac.c ****   ==============================================================================  
 830:Drivers/STM32F4xx_HAL_Driver/Src/stm32f4xx_hal_dac.c ****     [..]  This section provides functions allowing to:
 831:Drivers/STM32F4xx_HAL_Driver/Src/stm32f4xx_hal_dac.c ****       (+) Configure channels. 
 832:Drivers/STM32F4xx_HAL_Driver/Src/stm32f4xx_hal_dac.c ****       (+) Set the specified data holding register value for DAC channel.
 833:Drivers/STM32F4xx_HAL_Driver/Src/stm32f4xx_hal_dac.c ****       
 834:Drivers/STM32F4xx_HAL_Driver/Src/stm32f4xx_hal_dac.c **** @endverbatim
 835:Drivers/STM32F4xx_HAL_Driver/Src/stm32f4xx_hal_dac.c ****   * @{
 836:Drivers/STM32F4xx_HAL_Driver/Src/stm32f4xx_hal_dac.c ****   */
 837:Drivers/STM32F4xx_HAL_Driver/Src/stm32f4xx_hal_dac.c **** 
 838:Drivers/STM32F4xx_HAL_Driver/Src/stm32f4xx_hal_dac.c **** /**
 839:Drivers/STM32F4xx_HAL_Driver/Src/stm32f4xx_hal_dac.c ****   * @brief  Configures the selected DAC channel.
 840:Drivers/STM32F4xx_HAL_Driver/Src/stm32f4xx_hal_dac.c ****   * @param  hdac pointer to a DAC_HandleTypeDef structure that contains
 841:Drivers/STM32F4xx_HAL_Driver/Src/stm32f4xx_hal_dac.c ****   *         the configuration information for the specified DAC.
 842:Drivers/STM32F4xx_HAL_Driver/Src/stm32f4xx_hal_dac.c ****   * @param  sConfig DAC configuration structure.
 843:Drivers/STM32F4xx_HAL_Driver/Src/stm32f4xx_hal_dac.c ****   * @param  Channel The selected DAC channel. 
 844:Drivers/STM32F4xx_HAL_Driver/Src/stm32f4xx_hal_dac.c ****   *          This parameter can be one of the following values:
 845:Drivers/STM32F4xx_HAL_Driver/Src/stm32f4xx_hal_dac.c ****   *            @arg DAC_CHANNEL_1: DAC Channel1 selected
 846:Drivers/STM32F4xx_HAL_Driver/Src/stm32f4xx_hal_dac.c ****   *            @arg DAC_CHANNEL_2: DAC Channel2 selected
 847:Drivers/STM32F4xx_HAL_Driver/Src/stm32f4xx_hal_dac.c ****   * @retval HAL status
 848:Drivers/STM32F4xx_HAL_Driver/Src/stm32f4xx_hal_dac.c ****   */
 849:Drivers/STM32F4xx_HAL_Driver/Src/stm32f4xx_hal_dac.c **** HAL_StatusTypeDef HAL_DAC_ConfigChannel(DAC_HandleTypeDef* hdac, DAC_ChannelConfTypeDef* sConfig, u
 850:Drivers/STM32F4xx_HAL_Driver/Src/stm32f4xx_hal_dac.c **** {
 851:Drivers/STM32F4xx_HAL_Driver/Src/stm32f4xx_hal_dac.c ****   uint32_t tmpreg1 = 0U, tmpreg2 = 0U;
 852:Drivers/STM32F4xx_HAL_Driver/Src/stm32f4xx_hal_dac.c **** 
 853:Drivers/STM32F4xx_HAL_Driver/Src/stm32f4xx_hal_dac.c ****   /* Check the DAC parameters */
 854:Drivers/STM32F4xx_HAL_Driver/Src/stm32f4xx_hal_dac.c ****   assert_param(IS_DAC_TRIGGER(sConfig->DAC_Trigger));
 855:Drivers/STM32F4xx_HAL_Driver/Src/stm32f4xx_hal_dac.c ****   assert_param(IS_DAC_OUTPUT_BUFFER_STATE(sConfig->DAC_OutputBuffer));
 856:Drivers/STM32F4xx_HAL_Driver/Src/stm32f4xx_hal_dac.c ****   assert_param(IS_DAC_CHANNEL(Channel));
 857:Drivers/STM32F4xx_HAL_Driver/Src/stm32f4xx_hal_dac.c ****   
 858:Drivers/STM32F4xx_HAL_Driver/Src/stm32f4xx_hal_dac.c ****   /* Process locked */
 859:Drivers/STM32F4xx_HAL_Driver/Src/stm32f4xx_hal_dac.c ****   __HAL_LOCK(hdac);
 860:Drivers/STM32F4xx_HAL_Driver/Src/stm32f4xx_hal_dac.c ****   
 861:Drivers/STM32F4xx_HAL_Driver/Src/stm32f4xx_hal_dac.c ****   /* Change DAC state */
 862:Drivers/STM32F4xx_HAL_Driver/Src/stm32f4xx_hal_dac.c ****   hdac->State = HAL_DAC_STATE_BUSY;
 863:Drivers/STM32F4xx_HAL_Driver/Src/stm32f4xx_hal_dac.c ****   
 864:Drivers/STM32F4xx_HAL_Driver/Src/stm32f4xx_hal_dac.c ****   /* Get the DAC CR value */
 865:Drivers/STM32F4xx_HAL_Driver/Src/stm32f4xx_hal_dac.c ****   tmpreg1 = hdac->Instance->CR;
 866:Drivers/STM32F4xx_HAL_Driver/Src/stm32f4xx_hal_dac.c ****   /* Clear BOFFx, TENx, TSELx, WAVEx and MAMPx bits */
 867:Drivers/STM32F4xx_HAL_Driver/Src/stm32f4xx_hal_dac.c ****   tmpreg1 &= ~(((uint32_t)(DAC_CR_MAMP1 | DAC_CR_WAVE1 | DAC_CR_TSEL1 | DAC_CR_TEN1 | DAC_CR_BOFF1)
 868:Drivers/STM32F4xx_HAL_Driver/Src/stm32f4xx_hal_dac.c ****   /* Configure for the selected DAC channel: buffer output, trigger */
 869:Drivers/STM32F4xx_HAL_Driver/Src/stm32f4xx_hal_dac.c ****   /* Set TSELx and TENx bits according to DAC_Trigger value */
 870:Drivers/STM32F4xx_HAL_Driver/Src/stm32f4xx_hal_dac.c ****   /* Set BOFFx bit according to DAC_OutputBuffer value */   
 871:Drivers/STM32F4xx_HAL_Driver/Src/stm32f4xx_hal_dac.c ****   tmpreg2 = (sConfig->DAC_Trigger | sConfig->DAC_OutputBuffer);
 872:Drivers/STM32F4xx_HAL_Driver/Src/stm32f4xx_hal_dac.c ****   /* Calculate CR register value depending on DAC_Channel */
 873:Drivers/STM32F4xx_HAL_Driver/Src/stm32f4xx_hal_dac.c ****   tmpreg1 |= tmpreg2 << Channel;
 874:Drivers/STM32F4xx_HAL_Driver/Src/stm32f4xx_hal_dac.c ****   /* Write to DAC CR */
 875:Drivers/STM32F4xx_HAL_Driver/Src/stm32f4xx_hal_dac.c ****   hdac->Instance->CR = tmpreg1;
 876:Drivers/STM32F4xx_HAL_Driver/Src/stm32f4xx_hal_dac.c ****   /* Disable wave generation */
 877:Drivers/STM32F4xx_HAL_Driver/Src/stm32f4xx_hal_dac.c ****   hdac->Instance->CR &= ~(DAC_CR_WAVE1 << Channel);
 878:Drivers/STM32F4xx_HAL_Driver/Src/stm32f4xx_hal_dac.c ****   
 879:Drivers/STM32F4xx_HAL_Driver/Src/stm32f4xx_hal_dac.c ****   /* Change DAC state */
 880:Drivers/STM32F4xx_HAL_Driver/Src/stm32f4xx_hal_dac.c ****   hdac->State = HAL_DAC_STATE_READY;
 881:Drivers/STM32F4xx_HAL_Driver/Src/stm32f4xx_hal_dac.c ****   
 882:Drivers/STM32F4xx_HAL_Driver/Src/stm32f4xx_hal_dac.c ****   /* Process unlocked */
 883:Drivers/STM32F4xx_HAL_Driver/Src/stm32f4xx_hal_dac.c ****   __HAL_UNLOCK(hdac);
 884:Drivers/STM32F4xx_HAL_Driver/Src/stm32f4xx_hal_dac.c ****   
ARM GAS  /tmp/ccSfSgjJ.s 			page 32


 885:Drivers/STM32F4xx_HAL_Driver/Src/stm32f4xx_hal_dac.c ****   /* Return function status */
 886:Drivers/STM32F4xx_HAL_Driver/Src/stm32f4xx_hal_dac.c ****   return HAL_OK;
 887:Drivers/STM32F4xx_HAL_Driver/Src/stm32f4xx_hal_dac.c **** }
 888:Drivers/STM32F4xx_HAL_Driver/Src/stm32f4xx_hal_dac.c **** 
 889:Drivers/STM32F4xx_HAL_Driver/Src/stm32f4xx_hal_dac.c **** /**
 890:Drivers/STM32F4xx_HAL_Driver/Src/stm32f4xx_hal_dac.c ****   * @brief  Set the specified data holding register value for DAC channel.
 891:Drivers/STM32F4xx_HAL_Driver/Src/stm32f4xx_hal_dac.c ****   * @param  hdac pointer to a DAC_HandleTypeDef structure that contains
 892:Drivers/STM32F4xx_HAL_Driver/Src/stm32f4xx_hal_dac.c ****   *         the configuration information for the specified DAC.
 893:Drivers/STM32F4xx_HAL_Driver/Src/stm32f4xx_hal_dac.c ****   * @param  Channel The selected DAC channel. 
 894:Drivers/STM32F4xx_HAL_Driver/Src/stm32f4xx_hal_dac.c ****   *          This parameter can be one of the following values:
 895:Drivers/STM32F4xx_HAL_Driver/Src/stm32f4xx_hal_dac.c ****   *            @arg DAC_CHANNEL_1: DAC Channel1 selected
 896:Drivers/STM32F4xx_HAL_Driver/Src/stm32f4xx_hal_dac.c ****   *            @arg DAC_CHANNEL_2: DAC Channel2 selected  
 897:Drivers/STM32F4xx_HAL_Driver/Src/stm32f4xx_hal_dac.c ****   * @param  Alignment Specifies the data alignment.
 898:Drivers/STM32F4xx_HAL_Driver/Src/stm32f4xx_hal_dac.c ****   *          This parameter can be one of the following values:
 899:Drivers/STM32F4xx_HAL_Driver/Src/stm32f4xx_hal_dac.c ****   *            @arg DAC_ALIGN_8B_R: 8bit right data alignment selected
 900:Drivers/STM32F4xx_HAL_Driver/Src/stm32f4xx_hal_dac.c ****   *            @arg DAC_ALIGN_12B_L: 12bit left data alignment selected
 901:Drivers/STM32F4xx_HAL_Driver/Src/stm32f4xx_hal_dac.c ****   *            @arg DAC_ALIGN_12B_R: 12bit right data alignment selected
 902:Drivers/STM32F4xx_HAL_Driver/Src/stm32f4xx_hal_dac.c ****   * @param  Data Data to be loaded in the selected data holding register.
 903:Drivers/STM32F4xx_HAL_Driver/Src/stm32f4xx_hal_dac.c ****   * @retval HAL status
 904:Drivers/STM32F4xx_HAL_Driver/Src/stm32f4xx_hal_dac.c ****   */
 905:Drivers/STM32F4xx_HAL_Driver/Src/stm32f4xx_hal_dac.c **** HAL_StatusTypeDef HAL_DAC_SetValue(DAC_HandleTypeDef* hdac, uint32_t Channel, uint32_t Alignment, u
 906:Drivers/STM32F4xx_HAL_Driver/Src/stm32f4xx_hal_dac.c **** {  
 907:Drivers/STM32F4xx_HAL_Driver/Src/stm32f4xx_hal_dac.c ****   __IO uint32_t tmp = 0U;
 908:Drivers/STM32F4xx_HAL_Driver/Src/stm32f4xx_hal_dac.c ****   
 909:Drivers/STM32F4xx_HAL_Driver/Src/stm32f4xx_hal_dac.c ****   /* Check the parameters */
 910:Drivers/STM32F4xx_HAL_Driver/Src/stm32f4xx_hal_dac.c ****   assert_param(IS_DAC_CHANNEL(Channel));
 911:Drivers/STM32F4xx_HAL_Driver/Src/stm32f4xx_hal_dac.c ****   assert_param(IS_DAC_ALIGN(Alignment));
 912:Drivers/STM32F4xx_HAL_Driver/Src/stm32f4xx_hal_dac.c ****   assert_param(IS_DAC_DATA(Data));
 913:Drivers/STM32F4xx_HAL_Driver/Src/stm32f4xx_hal_dac.c ****   
 914:Drivers/STM32F4xx_HAL_Driver/Src/stm32f4xx_hal_dac.c ****   tmp = (uint32_t)hdac->Instance; 
 915:Drivers/STM32F4xx_HAL_Driver/Src/stm32f4xx_hal_dac.c ****   if(Channel == DAC_CHANNEL_1)
 916:Drivers/STM32F4xx_HAL_Driver/Src/stm32f4xx_hal_dac.c ****   {
 917:Drivers/STM32F4xx_HAL_Driver/Src/stm32f4xx_hal_dac.c ****     tmp += DAC_DHR12R1_ALIGNMENT(Alignment);
 918:Drivers/STM32F4xx_HAL_Driver/Src/stm32f4xx_hal_dac.c ****   }
 919:Drivers/STM32F4xx_HAL_Driver/Src/stm32f4xx_hal_dac.c ****   else
 920:Drivers/STM32F4xx_HAL_Driver/Src/stm32f4xx_hal_dac.c ****   {
 921:Drivers/STM32F4xx_HAL_Driver/Src/stm32f4xx_hal_dac.c ****     tmp += DAC_DHR12R2_ALIGNMENT(Alignment);
 922:Drivers/STM32F4xx_HAL_Driver/Src/stm32f4xx_hal_dac.c ****   }
 923:Drivers/STM32F4xx_HAL_Driver/Src/stm32f4xx_hal_dac.c **** 
 924:Drivers/STM32F4xx_HAL_Driver/Src/stm32f4xx_hal_dac.c ****   /* Set the DAC channel1 selected data holding register */
 925:Drivers/STM32F4xx_HAL_Driver/Src/stm32f4xx_hal_dac.c ****   *(__IO uint32_t *) tmp = Data;
 926:Drivers/STM32F4xx_HAL_Driver/Src/stm32f4xx_hal_dac.c ****   
 927:Drivers/STM32F4xx_HAL_Driver/Src/stm32f4xx_hal_dac.c ****   /* Return function status */
 928:Drivers/STM32F4xx_HAL_Driver/Src/stm32f4xx_hal_dac.c ****   return HAL_OK;
 929:Drivers/STM32F4xx_HAL_Driver/Src/stm32f4xx_hal_dac.c **** }
 930:Drivers/STM32F4xx_HAL_Driver/Src/stm32f4xx_hal_dac.c **** 
 931:Drivers/STM32F4xx_HAL_Driver/Src/stm32f4xx_hal_dac.c **** /**
 932:Drivers/STM32F4xx_HAL_Driver/Src/stm32f4xx_hal_dac.c ****   * @}
 933:Drivers/STM32F4xx_HAL_Driver/Src/stm32f4xx_hal_dac.c ****   */
 934:Drivers/STM32F4xx_HAL_Driver/Src/stm32f4xx_hal_dac.c **** 
 935:Drivers/STM32F4xx_HAL_Driver/Src/stm32f4xx_hal_dac.c **** /** @defgroup DAC_Exported_Functions_Group4 Peripheral State and Errors functions
 936:Drivers/STM32F4xx_HAL_Driver/Src/stm32f4xx_hal_dac.c ****  *  @brief   Peripheral State and Errors functions 
 937:Drivers/STM32F4xx_HAL_Driver/Src/stm32f4xx_hal_dac.c ****  *
 938:Drivers/STM32F4xx_HAL_Driver/Src/stm32f4xx_hal_dac.c **** @verbatim   
 939:Drivers/STM32F4xx_HAL_Driver/Src/stm32f4xx_hal_dac.c ****   ==============================================================================
 940:Drivers/STM32F4xx_HAL_Driver/Src/stm32f4xx_hal_dac.c ****             ##### Peripheral State and Errors functions #####
 941:Drivers/STM32F4xx_HAL_Driver/Src/stm32f4xx_hal_dac.c ****   ==============================================================================  
ARM GAS  /tmp/ccSfSgjJ.s 			page 33


 942:Drivers/STM32F4xx_HAL_Driver/Src/stm32f4xx_hal_dac.c ****     [..]
 943:Drivers/STM32F4xx_HAL_Driver/Src/stm32f4xx_hal_dac.c ****     This subsection provides functions allowing to
 944:Drivers/STM32F4xx_HAL_Driver/Src/stm32f4xx_hal_dac.c ****       (+) Check the DAC state.
 945:Drivers/STM32F4xx_HAL_Driver/Src/stm32f4xx_hal_dac.c ****       (+) Check the DAC Errors.
 946:Drivers/STM32F4xx_HAL_Driver/Src/stm32f4xx_hal_dac.c ****         
 947:Drivers/STM32F4xx_HAL_Driver/Src/stm32f4xx_hal_dac.c **** @endverbatim
 948:Drivers/STM32F4xx_HAL_Driver/Src/stm32f4xx_hal_dac.c ****   * @{
 949:Drivers/STM32F4xx_HAL_Driver/Src/stm32f4xx_hal_dac.c ****   */
 950:Drivers/STM32F4xx_HAL_Driver/Src/stm32f4xx_hal_dac.c **** 
 951:Drivers/STM32F4xx_HAL_Driver/Src/stm32f4xx_hal_dac.c **** /**
 952:Drivers/STM32F4xx_HAL_Driver/Src/stm32f4xx_hal_dac.c ****   * @brief  return the DAC state
 953:Drivers/STM32F4xx_HAL_Driver/Src/stm32f4xx_hal_dac.c ****   * @param  hdac pointer to a DAC_HandleTypeDef structure that contains
 954:Drivers/STM32F4xx_HAL_Driver/Src/stm32f4xx_hal_dac.c ****   *         the configuration information for the specified DAC.
 955:Drivers/STM32F4xx_HAL_Driver/Src/stm32f4xx_hal_dac.c ****   * @retval HAL state
 956:Drivers/STM32F4xx_HAL_Driver/Src/stm32f4xx_hal_dac.c ****   */
 957:Drivers/STM32F4xx_HAL_Driver/Src/stm32f4xx_hal_dac.c **** HAL_DAC_StateTypeDef HAL_DAC_GetState(DAC_HandleTypeDef* hdac)
 958:Drivers/STM32F4xx_HAL_Driver/Src/stm32f4xx_hal_dac.c **** {
 959:Drivers/STM32F4xx_HAL_Driver/Src/stm32f4xx_hal_dac.c ****   /* Return DAC state */
 960:Drivers/STM32F4xx_HAL_Driver/Src/stm32f4xx_hal_dac.c ****   return hdac->State;
 961:Drivers/STM32F4xx_HAL_Driver/Src/stm32f4xx_hal_dac.c **** }
 962:Drivers/STM32F4xx_HAL_Driver/Src/stm32f4xx_hal_dac.c **** 
 963:Drivers/STM32F4xx_HAL_Driver/Src/stm32f4xx_hal_dac.c **** 
 964:Drivers/STM32F4xx_HAL_Driver/Src/stm32f4xx_hal_dac.c **** /**
 965:Drivers/STM32F4xx_HAL_Driver/Src/stm32f4xx_hal_dac.c ****   * @brief  Return the DAC error code
 966:Drivers/STM32F4xx_HAL_Driver/Src/stm32f4xx_hal_dac.c ****   * @param  hdac pointer to a DAC_HandleTypeDef structure that contains
 967:Drivers/STM32F4xx_HAL_Driver/Src/stm32f4xx_hal_dac.c ****   *         the configuration information for the specified DAC.
 968:Drivers/STM32F4xx_HAL_Driver/Src/stm32f4xx_hal_dac.c ****   * @retval DAC Error Code
 969:Drivers/STM32F4xx_HAL_Driver/Src/stm32f4xx_hal_dac.c ****   */
 970:Drivers/STM32F4xx_HAL_Driver/Src/stm32f4xx_hal_dac.c **** uint32_t HAL_DAC_GetError(DAC_HandleTypeDef *hdac)
 971:Drivers/STM32F4xx_HAL_Driver/Src/stm32f4xx_hal_dac.c **** {
 972:Drivers/STM32F4xx_HAL_Driver/Src/stm32f4xx_hal_dac.c ****   return hdac->ErrorCode;
 973:Drivers/STM32F4xx_HAL_Driver/Src/stm32f4xx_hal_dac.c **** }
 974:Drivers/STM32F4xx_HAL_Driver/Src/stm32f4xx_hal_dac.c **** 
 975:Drivers/STM32F4xx_HAL_Driver/Src/stm32f4xx_hal_dac.c **** /**
 976:Drivers/STM32F4xx_HAL_Driver/Src/stm32f4xx_hal_dac.c ****   * @}
 977:Drivers/STM32F4xx_HAL_Driver/Src/stm32f4xx_hal_dac.c ****   */
 978:Drivers/STM32F4xx_HAL_Driver/Src/stm32f4xx_hal_dac.c **** 
 979:Drivers/STM32F4xx_HAL_Driver/Src/stm32f4xx_hal_dac.c **** /**
 980:Drivers/STM32F4xx_HAL_Driver/Src/stm32f4xx_hal_dac.c ****   * @}
 981:Drivers/STM32F4xx_HAL_Driver/Src/stm32f4xx_hal_dac.c ****   */
 982:Drivers/STM32F4xx_HAL_Driver/Src/stm32f4xx_hal_dac.c **** 
 983:Drivers/STM32F4xx_HAL_Driver/Src/stm32f4xx_hal_dac.c **** /** @addtogroup DAC_Exported_Functions
 984:Drivers/STM32F4xx_HAL_Driver/Src/stm32f4xx_hal_dac.c ****   * @{
 985:Drivers/STM32F4xx_HAL_Driver/Src/stm32f4xx_hal_dac.c ****   */
 986:Drivers/STM32F4xx_HAL_Driver/Src/stm32f4xx_hal_dac.c **** 
 987:Drivers/STM32F4xx_HAL_Driver/Src/stm32f4xx_hal_dac.c **** /** @addtogroup DAC_Exported_Functions_Group1
 988:Drivers/STM32F4xx_HAL_Driver/Src/stm32f4xx_hal_dac.c ****   * @{
 989:Drivers/STM32F4xx_HAL_Driver/Src/stm32f4xx_hal_dac.c ****   */
 990:Drivers/STM32F4xx_HAL_Driver/Src/stm32f4xx_hal_dac.c **** #if (USE_HAL_DAC_REGISTER_CALLBACKS == 1)
 991:Drivers/STM32F4xx_HAL_Driver/Src/stm32f4xx_hal_dac.c **** /**
 992:Drivers/STM32F4xx_HAL_Driver/Src/stm32f4xx_hal_dac.c ****   * @brief  Register a User DAC Callback
 993:Drivers/STM32F4xx_HAL_Driver/Src/stm32f4xx_hal_dac.c ****   *         To be used instead of the weak (surcharged) predefined callback
 994:Drivers/STM32F4xx_HAL_Driver/Src/stm32f4xx_hal_dac.c ****   * @param hdac DAC handle
 995:Drivers/STM32F4xx_HAL_Driver/Src/stm32f4xx_hal_dac.c ****   * @param  CallbackID ID of the callback to be registered
 996:Drivers/STM32F4xx_HAL_Driver/Src/stm32f4xx_hal_dac.c ****   *        This parameter can be one of the following values:
 997:Drivers/STM32F4xx_HAL_Driver/Src/stm32f4xx_hal_dac.c ****   *          @arg @ref HAL_DAC_ERROR_INVALID_CALLBACK   DAC Error Callback ID
 998:Drivers/STM32F4xx_HAL_Driver/Src/stm32f4xx_hal_dac.c ****   *          @arg @ref HAL_DAC_CH1_COMPLETE_CB_ID       DAC CH1 Complete Callback ID
ARM GAS  /tmp/ccSfSgjJ.s 			page 34


 999:Drivers/STM32F4xx_HAL_Driver/Src/stm32f4xx_hal_dac.c ****   *          @arg @ref HAL_DAC_CH1_HALF_COMPLETE_CB_ID  DAC CH1 Half Complete Callback ID
1000:Drivers/STM32F4xx_HAL_Driver/Src/stm32f4xx_hal_dac.c ****   *          @arg @ref HAL_DAC_CH1_ERROR_ID             DAC CH1 Error Callback ID
1001:Drivers/STM32F4xx_HAL_Driver/Src/stm32f4xx_hal_dac.c ****   *          @arg @ref HAL_DAC_CH1_UNDERRUN_CB_ID       DAC CH1 UnderRun Callback ID
1002:Drivers/STM32F4xx_HAL_Driver/Src/stm32f4xx_hal_dac.c ****   *          @arg @ref HAL_DAC_CH2_COMPLETE_CB_ID       DAC CH2 Complete Callback ID
1003:Drivers/STM32F4xx_HAL_Driver/Src/stm32f4xx_hal_dac.c ****   *          @arg @ref HAL_DAC_CH2_HALF_COMPLETE_CB_ID  DAC CH2 Half Complete Callback ID
1004:Drivers/STM32F4xx_HAL_Driver/Src/stm32f4xx_hal_dac.c ****   *          @arg @ref HAL_DAC_CH2_ERROR_ID             DAC CH2 Error Callback ID
1005:Drivers/STM32F4xx_HAL_Driver/Src/stm32f4xx_hal_dac.c ****   *          @arg @ref HAL_DAC_CH2_UNDERRUN_CB_ID       DAC CH2 UnderRun Callback ID
1006:Drivers/STM32F4xx_HAL_Driver/Src/stm32f4xx_hal_dac.c ****   *          @arg @ref HAL_DAC_MSP_INIT_CB_ID           DAC MSP Init Callback ID
1007:Drivers/STM32F4xx_HAL_Driver/Src/stm32f4xx_hal_dac.c ****   *          @arg @ref HAL_DAC_MSP_DEINIT_CB_ID         DAC MSP DeInit Callback ID
1008:Drivers/STM32F4xx_HAL_Driver/Src/stm32f4xx_hal_dac.c ****   *
1009:Drivers/STM32F4xx_HAL_Driver/Src/stm32f4xx_hal_dac.c ****     * @param pCallback pointer to the Callback function
1010:Drivers/STM32F4xx_HAL_Driver/Src/stm32f4xx_hal_dac.c ****   * @retval status
1011:Drivers/STM32F4xx_HAL_Driver/Src/stm32f4xx_hal_dac.c ****   */
1012:Drivers/STM32F4xx_HAL_Driver/Src/stm32f4xx_hal_dac.c **** HAL_StatusTypeDef HAL_DAC_RegisterCallback (DAC_HandleTypeDef *hdac, HAL_DAC_CallbackIDTypeDef Call
1013:Drivers/STM32F4xx_HAL_Driver/Src/stm32f4xx_hal_dac.c **** {
1014:Drivers/STM32F4xx_HAL_Driver/Src/stm32f4xx_hal_dac.c ****   HAL_StatusTypeDef status = HAL_OK;
1015:Drivers/STM32F4xx_HAL_Driver/Src/stm32f4xx_hal_dac.c **** 
1016:Drivers/STM32F4xx_HAL_Driver/Src/stm32f4xx_hal_dac.c ****   if(pCallback == NULL)
1017:Drivers/STM32F4xx_HAL_Driver/Src/stm32f4xx_hal_dac.c ****   {
1018:Drivers/STM32F4xx_HAL_Driver/Src/stm32f4xx_hal_dac.c ****     /* Update the error code */
1019:Drivers/STM32F4xx_HAL_Driver/Src/stm32f4xx_hal_dac.c ****     hdac->ErrorCode |= HAL_DAC_ERROR_INVALID_CALLBACK;
1020:Drivers/STM32F4xx_HAL_Driver/Src/stm32f4xx_hal_dac.c ****     return HAL_ERROR;
1021:Drivers/STM32F4xx_HAL_Driver/Src/stm32f4xx_hal_dac.c ****   }
1022:Drivers/STM32F4xx_HAL_Driver/Src/stm32f4xx_hal_dac.c **** 
1023:Drivers/STM32F4xx_HAL_Driver/Src/stm32f4xx_hal_dac.c ****   /* Process locked */
1024:Drivers/STM32F4xx_HAL_Driver/Src/stm32f4xx_hal_dac.c ****   __HAL_LOCK(hdac);
1025:Drivers/STM32F4xx_HAL_Driver/Src/stm32f4xx_hal_dac.c **** 
1026:Drivers/STM32F4xx_HAL_Driver/Src/stm32f4xx_hal_dac.c ****   if(hdac->State == HAL_DAC_STATE_READY)
1027:Drivers/STM32F4xx_HAL_Driver/Src/stm32f4xx_hal_dac.c ****   {
1028:Drivers/STM32F4xx_HAL_Driver/Src/stm32f4xx_hal_dac.c ****     switch (CallbackID)
1029:Drivers/STM32F4xx_HAL_Driver/Src/stm32f4xx_hal_dac.c ****     {
1030:Drivers/STM32F4xx_HAL_Driver/Src/stm32f4xx_hal_dac.c ****     case HAL_DAC_CH1_COMPLETE_CB_ID :
1031:Drivers/STM32F4xx_HAL_Driver/Src/stm32f4xx_hal_dac.c ****       hdac->ConvCpltCallbackCh1 = pCallback;
1032:Drivers/STM32F4xx_HAL_Driver/Src/stm32f4xx_hal_dac.c ****       break;
1033:Drivers/STM32F4xx_HAL_Driver/Src/stm32f4xx_hal_dac.c ****     case HAL_DAC_CH1_HALF_COMPLETE_CB_ID :
1034:Drivers/STM32F4xx_HAL_Driver/Src/stm32f4xx_hal_dac.c ****       hdac->ConvHalfCpltCallbackCh1 = pCallback;
1035:Drivers/STM32F4xx_HAL_Driver/Src/stm32f4xx_hal_dac.c ****       break;
1036:Drivers/STM32F4xx_HAL_Driver/Src/stm32f4xx_hal_dac.c ****     case HAL_DAC_CH1_ERROR_ID :
1037:Drivers/STM32F4xx_HAL_Driver/Src/stm32f4xx_hal_dac.c ****       hdac->ErrorCallbackCh1 = pCallback;
1038:Drivers/STM32F4xx_HAL_Driver/Src/stm32f4xx_hal_dac.c ****       break;
1039:Drivers/STM32F4xx_HAL_Driver/Src/stm32f4xx_hal_dac.c ****     case HAL_DAC_CH1_UNDERRUN_CB_ID :
1040:Drivers/STM32F4xx_HAL_Driver/Src/stm32f4xx_hal_dac.c ****       hdac->DMAUnderrunCallbackCh1 = pCallback;
1041:Drivers/STM32F4xx_HAL_Driver/Src/stm32f4xx_hal_dac.c ****       break;
1042:Drivers/STM32F4xx_HAL_Driver/Src/stm32f4xx_hal_dac.c ****     case HAL_DAC_CH2_COMPLETE_CB_ID :
1043:Drivers/STM32F4xx_HAL_Driver/Src/stm32f4xx_hal_dac.c ****       hdac->ConvCpltCallbackCh2 = pCallback;
1044:Drivers/STM32F4xx_HAL_Driver/Src/stm32f4xx_hal_dac.c ****       break;
1045:Drivers/STM32F4xx_HAL_Driver/Src/stm32f4xx_hal_dac.c ****     case HAL_DAC_CH2_HALF_COMPLETE_CB_ID :
1046:Drivers/STM32F4xx_HAL_Driver/Src/stm32f4xx_hal_dac.c ****       hdac->ConvHalfCpltCallbackCh2 = pCallback;
1047:Drivers/STM32F4xx_HAL_Driver/Src/stm32f4xx_hal_dac.c ****       break;
1048:Drivers/STM32F4xx_HAL_Driver/Src/stm32f4xx_hal_dac.c ****     case HAL_DAC_CH2_ERROR_ID :
1049:Drivers/STM32F4xx_HAL_Driver/Src/stm32f4xx_hal_dac.c ****       hdac->ErrorCallbackCh2 = pCallback;
1050:Drivers/STM32F4xx_HAL_Driver/Src/stm32f4xx_hal_dac.c ****       break;
1051:Drivers/STM32F4xx_HAL_Driver/Src/stm32f4xx_hal_dac.c ****     case HAL_DAC_CH2_UNDERRUN_CB_ID :
1052:Drivers/STM32F4xx_HAL_Driver/Src/stm32f4xx_hal_dac.c ****       hdac->DMAUnderrunCallbackCh2 = pCallback;
1053:Drivers/STM32F4xx_HAL_Driver/Src/stm32f4xx_hal_dac.c ****       break;
1054:Drivers/STM32F4xx_HAL_Driver/Src/stm32f4xx_hal_dac.c ****     case HAL_DAC_MSP_INIT_CB_ID :
1055:Drivers/STM32F4xx_HAL_Driver/Src/stm32f4xx_hal_dac.c ****       hdac->MspInitCallback = pCallback;
ARM GAS  /tmp/ccSfSgjJ.s 			page 35


1056:Drivers/STM32F4xx_HAL_Driver/Src/stm32f4xx_hal_dac.c ****       break;
1057:Drivers/STM32F4xx_HAL_Driver/Src/stm32f4xx_hal_dac.c ****     case HAL_DAC_MSP_DEINIT_CB_ID :
1058:Drivers/STM32F4xx_HAL_Driver/Src/stm32f4xx_hal_dac.c ****       hdac->MspDeInitCallback = pCallback;
1059:Drivers/STM32F4xx_HAL_Driver/Src/stm32f4xx_hal_dac.c ****       break;
1060:Drivers/STM32F4xx_HAL_Driver/Src/stm32f4xx_hal_dac.c ****     default :
1061:Drivers/STM32F4xx_HAL_Driver/Src/stm32f4xx_hal_dac.c ****       /* Update the error code */
1062:Drivers/STM32F4xx_HAL_Driver/Src/stm32f4xx_hal_dac.c ****       hdac->ErrorCode |= HAL_DAC_ERROR_INVALID_CALLBACK;
1063:Drivers/STM32F4xx_HAL_Driver/Src/stm32f4xx_hal_dac.c ****       /* update return status */
1064:Drivers/STM32F4xx_HAL_Driver/Src/stm32f4xx_hal_dac.c ****       status =  HAL_ERROR;
1065:Drivers/STM32F4xx_HAL_Driver/Src/stm32f4xx_hal_dac.c ****       break;
1066:Drivers/STM32F4xx_HAL_Driver/Src/stm32f4xx_hal_dac.c ****     }
1067:Drivers/STM32F4xx_HAL_Driver/Src/stm32f4xx_hal_dac.c ****   }
1068:Drivers/STM32F4xx_HAL_Driver/Src/stm32f4xx_hal_dac.c ****   else if (hdac->State == HAL_DAC_STATE_RESET)
1069:Drivers/STM32F4xx_HAL_Driver/Src/stm32f4xx_hal_dac.c ****   {
1070:Drivers/STM32F4xx_HAL_Driver/Src/stm32f4xx_hal_dac.c ****     switch (CallbackID)
1071:Drivers/STM32F4xx_HAL_Driver/Src/stm32f4xx_hal_dac.c ****     {
1072:Drivers/STM32F4xx_HAL_Driver/Src/stm32f4xx_hal_dac.c ****     case HAL_DAC_MSP_INIT_CB_ID :
1073:Drivers/STM32F4xx_HAL_Driver/Src/stm32f4xx_hal_dac.c ****       hdac->MspInitCallback = pCallback;
1074:Drivers/STM32F4xx_HAL_Driver/Src/stm32f4xx_hal_dac.c ****       break;
1075:Drivers/STM32F4xx_HAL_Driver/Src/stm32f4xx_hal_dac.c ****     case HAL_DAC_MSP_DEINIT_CB_ID :
1076:Drivers/STM32F4xx_HAL_Driver/Src/stm32f4xx_hal_dac.c ****       hdac->MspDeInitCallback = pCallback;
1077:Drivers/STM32F4xx_HAL_Driver/Src/stm32f4xx_hal_dac.c ****       break;
1078:Drivers/STM32F4xx_HAL_Driver/Src/stm32f4xx_hal_dac.c ****     default :
1079:Drivers/STM32F4xx_HAL_Driver/Src/stm32f4xx_hal_dac.c ****       /* Update the error code */
1080:Drivers/STM32F4xx_HAL_Driver/Src/stm32f4xx_hal_dac.c ****       hdac->ErrorCode |= HAL_DAC_ERROR_INVALID_CALLBACK;
1081:Drivers/STM32F4xx_HAL_Driver/Src/stm32f4xx_hal_dac.c ****       /* update return status */
1082:Drivers/STM32F4xx_HAL_Driver/Src/stm32f4xx_hal_dac.c ****       status =  HAL_ERROR;
1083:Drivers/STM32F4xx_HAL_Driver/Src/stm32f4xx_hal_dac.c ****       break;
1084:Drivers/STM32F4xx_HAL_Driver/Src/stm32f4xx_hal_dac.c ****     }
1085:Drivers/STM32F4xx_HAL_Driver/Src/stm32f4xx_hal_dac.c ****   }
1086:Drivers/STM32F4xx_HAL_Driver/Src/stm32f4xx_hal_dac.c ****   else
1087:Drivers/STM32F4xx_HAL_Driver/Src/stm32f4xx_hal_dac.c ****   {
1088:Drivers/STM32F4xx_HAL_Driver/Src/stm32f4xx_hal_dac.c ****     /* Update the error code */
1089:Drivers/STM32F4xx_HAL_Driver/Src/stm32f4xx_hal_dac.c ****     hdac->ErrorCode |= HAL_DAC_ERROR_INVALID_CALLBACK;
1090:Drivers/STM32F4xx_HAL_Driver/Src/stm32f4xx_hal_dac.c ****     /* update return status */
1091:Drivers/STM32F4xx_HAL_Driver/Src/stm32f4xx_hal_dac.c ****     status =  HAL_ERROR;
1092:Drivers/STM32F4xx_HAL_Driver/Src/stm32f4xx_hal_dac.c ****   }
1093:Drivers/STM32F4xx_HAL_Driver/Src/stm32f4xx_hal_dac.c **** 
1094:Drivers/STM32F4xx_HAL_Driver/Src/stm32f4xx_hal_dac.c ****   /* Release Lock */
1095:Drivers/STM32F4xx_HAL_Driver/Src/stm32f4xx_hal_dac.c ****   __HAL_UNLOCK(hdac);
1096:Drivers/STM32F4xx_HAL_Driver/Src/stm32f4xx_hal_dac.c ****   return status;
1097:Drivers/STM32F4xx_HAL_Driver/Src/stm32f4xx_hal_dac.c **** }
1098:Drivers/STM32F4xx_HAL_Driver/Src/stm32f4xx_hal_dac.c **** 
1099:Drivers/STM32F4xx_HAL_Driver/Src/stm32f4xx_hal_dac.c **** /**
1100:Drivers/STM32F4xx_HAL_Driver/Src/stm32f4xx_hal_dac.c ****   * @brief  Unregister a User DAC Callback
1101:Drivers/STM32F4xx_HAL_Driver/Src/stm32f4xx_hal_dac.c ****   *         DAC Callback is redirected to the weak (surcharged) predefined callback
1102:Drivers/STM32F4xx_HAL_Driver/Src/stm32f4xx_hal_dac.c ****   * @param hdac DAC handle
1103:Drivers/STM32F4xx_HAL_Driver/Src/stm32f4xx_hal_dac.c ****   * @param  CallbackID ID of the callback to be unregistered
1104:Drivers/STM32F4xx_HAL_Driver/Src/stm32f4xx_hal_dac.c ****   *        This parameter can be one of the following values:
1105:Drivers/STM32F4xx_HAL_Driver/Src/stm32f4xx_hal_dac.c ****   *          @arg @ref HAL_DAC_CH1_COMPLETE_CB_ID          DAC CH1 tranfer Complete Callback ID
1106:Drivers/STM32F4xx_HAL_Driver/Src/stm32f4xx_hal_dac.c ****   *          @arg @ref HAL_DAC_CH1_HALF_COMPLETE_CB_ID     DAC CH1 Half Complete Callback ID
1107:Drivers/STM32F4xx_HAL_Driver/Src/stm32f4xx_hal_dac.c ****   *          @arg @ref HAL_DAC_CH1_ERROR_ID                DAC CH1 Error Callback ID
1108:Drivers/STM32F4xx_HAL_Driver/Src/stm32f4xx_hal_dac.c ****   *          @arg @ref HAL_DAC_CH1_UNDERRUN_CB_ID          DAC CH1 UnderRun Callback ID
1109:Drivers/STM32F4xx_HAL_Driver/Src/stm32f4xx_hal_dac.c ****   *          @arg @ref HAL_DAC_CH2_COMPLETE_CB_ID          DAC CH2 Complete Callback ID
1110:Drivers/STM32F4xx_HAL_Driver/Src/stm32f4xx_hal_dac.c ****   *          @arg @ref HAL_DAC_CH2_HALF_COMPLETE_CB_ID     DAC CH2 Half Complete Callback ID
1111:Drivers/STM32F4xx_HAL_Driver/Src/stm32f4xx_hal_dac.c ****   *          @arg @ref HAL_DAC_CH2_ERROR_ID                DAC CH2 Error Callback ID
1112:Drivers/STM32F4xx_HAL_Driver/Src/stm32f4xx_hal_dac.c ****   *          @arg @ref HAL_DAC_CH2_UNDERRUN_CB_ID          DAC CH2 UnderRun Callback ID
ARM GAS  /tmp/ccSfSgjJ.s 			page 36


1113:Drivers/STM32F4xx_HAL_Driver/Src/stm32f4xx_hal_dac.c ****   *          @arg @ref HAL_DAC_MSP_INIT_CB_ID              DAC MSP Init Callback ID
1114:Drivers/STM32F4xx_HAL_Driver/Src/stm32f4xx_hal_dac.c ****   *          @arg @ref HAL_DAC_MSP_DEINIT_CB_ID            DAC MSP DeInit Callback ID
1115:Drivers/STM32F4xx_HAL_Driver/Src/stm32f4xx_hal_dac.c ****   *          @arg @ref HAL_DAC_ALL_CB_ID                   DAC All callbacks
1116:Drivers/STM32F4xx_HAL_Driver/Src/stm32f4xx_hal_dac.c ****   * @retval status
1117:Drivers/STM32F4xx_HAL_Driver/Src/stm32f4xx_hal_dac.c ****   */
1118:Drivers/STM32F4xx_HAL_Driver/Src/stm32f4xx_hal_dac.c **** HAL_StatusTypeDef HAL_DAC_UnRegisterCallback (DAC_HandleTypeDef *hdac, HAL_DAC_CallbackIDTypeDef Ca
1119:Drivers/STM32F4xx_HAL_Driver/Src/stm32f4xx_hal_dac.c **** {
1120:Drivers/STM32F4xx_HAL_Driver/Src/stm32f4xx_hal_dac.c ****   HAL_StatusTypeDef status = HAL_OK;
1121:Drivers/STM32F4xx_HAL_Driver/Src/stm32f4xx_hal_dac.c **** 
1122:Drivers/STM32F4xx_HAL_Driver/Src/stm32f4xx_hal_dac.c ****   /* Process locked */
1123:Drivers/STM32F4xx_HAL_Driver/Src/stm32f4xx_hal_dac.c ****   __HAL_LOCK(hdac);
1124:Drivers/STM32F4xx_HAL_Driver/Src/stm32f4xx_hal_dac.c **** 
1125:Drivers/STM32F4xx_HAL_Driver/Src/stm32f4xx_hal_dac.c ****   if(hdac->State == HAL_DAC_STATE_READY)
1126:Drivers/STM32F4xx_HAL_Driver/Src/stm32f4xx_hal_dac.c ****   {
1127:Drivers/STM32F4xx_HAL_Driver/Src/stm32f4xx_hal_dac.c ****     switch (CallbackID)
1128:Drivers/STM32F4xx_HAL_Driver/Src/stm32f4xx_hal_dac.c ****     {
1129:Drivers/STM32F4xx_HAL_Driver/Src/stm32f4xx_hal_dac.c ****     case HAL_DAC_CH1_COMPLETE_CB_ID :
1130:Drivers/STM32F4xx_HAL_Driver/Src/stm32f4xx_hal_dac.c ****       hdac->ConvCpltCallbackCh1 = HAL_DAC_ConvCpltCallbackCh1;
1131:Drivers/STM32F4xx_HAL_Driver/Src/stm32f4xx_hal_dac.c ****       break;
1132:Drivers/STM32F4xx_HAL_Driver/Src/stm32f4xx_hal_dac.c ****     case HAL_DAC_CH1_HALF_COMPLETE_CB_ID :
1133:Drivers/STM32F4xx_HAL_Driver/Src/stm32f4xx_hal_dac.c ****       hdac->ConvHalfCpltCallbackCh1 = HAL_DAC_ConvHalfCpltCallbackCh1;
1134:Drivers/STM32F4xx_HAL_Driver/Src/stm32f4xx_hal_dac.c ****       break;
1135:Drivers/STM32F4xx_HAL_Driver/Src/stm32f4xx_hal_dac.c ****     case HAL_DAC_CH1_ERROR_ID :
1136:Drivers/STM32F4xx_HAL_Driver/Src/stm32f4xx_hal_dac.c ****       hdac->ErrorCallbackCh1 = HAL_DAC_ErrorCallbackCh1;
1137:Drivers/STM32F4xx_HAL_Driver/Src/stm32f4xx_hal_dac.c ****       break;
1138:Drivers/STM32F4xx_HAL_Driver/Src/stm32f4xx_hal_dac.c ****     case HAL_DAC_CH1_UNDERRUN_CB_ID :
1139:Drivers/STM32F4xx_HAL_Driver/Src/stm32f4xx_hal_dac.c ****       hdac->DMAUnderrunCallbackCh1 = HAL_DAC_DMAUnderrunCallbackCh1;
1140:Drivers/STM32F4xx_HAL_Driver/Src/stm32f4xx_hal_dac.c ****       break;
1141:Drivers/STM32F4xx_HAL_Driver/Src/stm32f4xx_hal_dac.c ****     case HAL_DAC_CH2_COMPLETE_CB_ID :
1142:Drivers/STM32F4xx_HAL_Driver/Src/stm32f4xx_hal_dac.c ****       hdac->ConvCpltCallbackCh2 = HAL_DACEx_ConvCpltCallbackCh2;
1143:Drivers/STM32F4xx_HAL_Driver/Src/stm32f4xx_hal_dac.c ****       break;
1144:Drivers/STM32F4xx_HAL_Driver/Src/stm32f4xx_hal_dac.c ****     case HAL_DAC_CH2_HALF_COMPLETE_CB_ID :
1145:Drivers/STM32F4xx_HAL_Driver/Src/stm32f4xx_hal_dac.c ****       hdac->ConvHalfCpltCallbackCh2 = HAL_DACEx_ConvHalfCpltCallbackCh2;
1146:Drivers/STM32F4xx_HAL_Driver/Src/stm32f4xx_hal_dac.c ****       break;
1147:Drivers/STM32F4xx_HAL_Driver/Src/stm32f4xx_hal_dac.c ****     case HAL_DAC_CH2_ERROR_ID :
1148:Drivers/STM32F4xx_HAL_Driver/Src/stm32f4xx_hal_dac.c ****       hdac->ErrorCallbackCh2 = HAL_DACEx_ErrorCallbackCh2;
1149:Drivers/STM32F4xx_HAL_Driver/Src/stm32f4xx_hal_dac.c ****       break;
1150:Drivers/STM32F4xx_HAL_Driver/Src/stm32f4xx_hal_dac.c ****     case HAL_DAC_CH2_UNDERRUN_CB_ID :
1151:Drivers/STM32F4xx_HAL_Driver/Src/stm32f4xx_hal_dac.c ****       hdac->DMAUnderrunCallbackCh2 = HAL_DACEx_DMAUnderrunCallbackCh2;
1152:Drivers/STM32F4xx_HAL_Driver/Src/stm32f4xx_hal_dac.c ****       break;
1153:Drivers/STM32F4xx_HAL_Driver/Src/stm32f4xx_hal_dac.c ****     case HAL_DAC_MSP_INIT_CB_ID :
1154:Drivers/STM32F4xx_HAL_Driver/Src/stm32f4xx_hal_dac.c ****       hdac->MspInitCallback = HAL_DAC_MspInit;
1155:Drivers/STM32F4xx_HAL_Driver/Src/stm32f4xx_hal_dac.c ****       break;
1156:Drivers/STM32F4xx_HAL_Driver/Src/stm32f4xx_hal_dac.c ****     case HAL_DAC_MSP_DEINIT_CB_ID :
1157:Drivers/STM32F4xx_HAL_Driver/Src/stm32f4xx_hal_dac.c ****       hdac->MspDeInitCallback = HAL_DAC_MspDeInit;
1158:Drivers/STM32F4xx_HAL_Driver/Src/stm32f4xx_hal_dac.c ****       break;
1159:Drivers/STM32F4xx_HAL_Driver/Src/stm32f4xx_hal_dac.c ****     case HAL_DAC_ALL_CB_ID :
1160:Drivers/STM32F4xx_HAL_Driver/Src/stm32f4xx_hal_dac.c ****       hdac->ConvCpltCallbackCh1 = HAL_DAC_ConvCpltCallbackCh1;
1161:Drivers/STM32F4xx_HAL_Driver/Src/stm32f4xx_hal_dac.c ****       hdac->ConvHalfCpltCallbackCh1 = HAL_DAC_ConvHalfCpltCallbackCh1;
1162:Drivers/STM32F4xx_HAL_Driver/Src/stm32f4xx_hal_dac.c ****       hdac->ErrorCallbackCh1 = HAL_DAC_ErrorCallbackCh1;
1163:Drivers/STM32F4xx_HAL_Driver/Src/stm32f4xx_hal_dac.c ****       hdac->DMAUnderrunCallbackCh1 = HAL_DAC_DMAUnderrunCallbackCh1;
1164:Drivers/STM32F4xx_HAL_Driver/Src/stm32f4xx_hal_dac.c ****       hdac->ConvCpltCallbackCh2 = HAL_DACEx_ConvCpltCallbackCh2;
1165:Drivers/STM32F4xx_HAL_Driver/Src/stm32f4xx_hal_dac.c ****       hdac->ConvHalfCpltCallbackCh2 = HAL_DACEx_ConvHalfCpltCallbackCh2;
1166:Drivers/STM32F4xx_HAL_Driver/Src/stm32f4xx_hal_dac.c ****       hdac->ErrorCallbackCh2 = HAL_DACEx_ErrorCallbackCh2;
1167:Drivers/STM32F4xx_HAL_Driver/Src/stm32f4xx_hal_dac.c ****       hdac->DMAUnderrunCallbackCh2 = HAL_DACEx_DMAUnderrunCallbackCh2;
1168:Drivers/STM32F4xx_HAL_Driver/Src/stm32f4xx_hal_dac.c ****       hdac->MspInitCallback = HAL_DAC_MspInit;
1169:Drivers/STM32F4xx_HAL_Driver/Src/stm32f4xx_hal_dac.c ****       hdac->MspDeInitCallback = HAL_DAC_MspDeInit;
ARM GAS  /tmp/ccSfSgjJ.s 			page 37


1170:Drivers/STM32F4xx_HAL_Driver/Src/stm32f4xx_hal_dac.c ****       break;
1171:Drivers/STM32F4xx_HAL_Driver/Src/stm32f4xx_hal_dac.c ****     default :
1172:Drivers/STM32F4xx_HAL_Driver/Src/stm32f4xx_hal_dac.c ****       /* Update the error code */
1173:Drivers/STM32F4xx_HAL_Driver/Src/stm32f4xx_hal_dac.c ****       hdac->ErrorCode |= HAL_DAC_ERROR_INVALID_CALLBACK;
1174:Drivers/STM32F4xx_HAL_Driver/Src/stm32f4xx_hal_dac.c ****       /* update return status */
1175:Drivers/STM32F4xx_HAL_Driver/Src/stm32f4xx_hal_dac.c ****       status =  HAL_ERROR;
1176:Drivers/STM32F4xx_HAL_Driver/Src/stm32f4xx_hal_dac.c ****       break;
1177:Drivers/STM32F4xx_HAL_Driver/Src/stm32f4xx_hal_dac.c ****     }
1178:Drivers/STM32F4xx_HAL_Driver/Src/stm32f4xx_hal_dac.c ****   }
1179:Drivers/STM32F4xx_HAL_Driver/Src/stm32f4xx_hal_dac.c ****   else if (hdac->State == HAL_DAC_STATE_RESET)
1180:Drivers/STM32F4xx_HAL_Driver/Src/stm32f4xx_hal_dac.c ****   {
1181:Drivers/STM32F4xx_HAL_Driver/Src/stm32f4xx_hal_dac.c ****     switch (CallbackID)
1182:Drivers/STM32F4xx_HAL_Driver/Src/stm32f4xx_hal_dac.c ****     {
1183:Drivers/STM32F4xx_HAL_Driver/Src/stm32f4xx_hal_dac.c ****     case HAL_DAC_MSP_INIT_CB_ID :
1184:Drivers/STM32F4xx_HAL_Driver/Src/stm32f4xx_hal_dac.c ****       hdac->MspInitCallback = HAL_DAC_MspInit;
1185:Drivers/STM32F4xx_HAL_Driver/Src/stm32f4xx_hal_dac.c ****       break;
1186:Drivers/STM32F4xx_HAL_Driver/Src/stm32f4xx_hal_dac.c ****     case HAL_DAC_MSP_DEINIT_CB_ID :
1187:Drivers/STM32F4xx_HAL_Driver/Src/stm32f4xx_hal_dac.c ****       hdac->MspDeInitCallback = HAL_DAC_MspDeInit;
1188:Drivers/STM32F4xx_HAL_Driver/Src/stm32f4xx_hal_dac.c ****       break;
1189:Drivers/STM32F4xx_HAL_Driver/Src/stm32f4xx_hal_dac.c ****     default :
1190:Drivers/STM32F4xx_HAL_Driver/Src/stm32f4xx_hal_dac.c ****       /* Update the error code */
1191:Drivers/STM32F4xx_HAL_Driver/Src/stm32f4xx_hal_dac.c ****       hdac->ErrorCode |= HAL_DAC_ERROR_INVALID_CALLBACK;
1192:Drivers/STM32F4xx_HAL_Driver/Src/stm32f4xx_hal_dac.c ****       /* update return status */
1193:Drivers/STM32F4xx_HAL_Driver/Src/stm32f4xx_hal_dac.c ****       status =  HAL_ERROR;
1194:Drivers/STM32F4xx_HAL_Driver/Src/stm32f4xx_hal_dac.c ****       break;
1195:Drivers/STM32F4xx_HAL_Driver/Src/stm32f4xx_hal_dac.c ****     }
1196:Drivers/STM32F4xx_HAL_Driver/Src/stm32f4xx_hal_dac.c ****   }
1197:Drivers/STM32F4xx_HAL_Driver/Src/stm32f4xx_hal_dac.c ****   else
1198:Drivers/STM32F4xx_HAL_Driver/Src/stm32f4xx_hal_dac.c ****   {
1199:Drivers/STM32F4xx_HAL_Driver/Src/stm32f4xx_hal_dac.c ****     /* Update the error code */
1200:Drivers/STM32F4xx_HAL_Driver/Src/stm32f4xx_hal_dac.c ****     hdac->ErrorCode |= HAL_DAC_ERROR_INVALID_CALLBACK;
1201:Drivers/STM32F4xx_HAL_Driver/Src/stm32f4xx_hal_dac.c ****     /* update return status */
1202:Drivers/STM32F4xx_HAL_Driver/Src/stm32f4xx_hal_dac.c ****     status =  HAL_ERROR;
1203:Drivers/STM32F4xx_HAL_Driver/Src/stm32f4xx_hal_dac.c ****   }
1204:Drivers/STM32F4xx_HAL_Driver/Src/stm32f4xx_hal_dac.c **** 
1205:Drivers/STM32F4xx_HAL_Driver/Src/stm32f4xx_hal_dac.c ****   /* Release Lock */
1206:Drivers/STM32F4xx_HAL_Driver/Src/stm32f4xx_hal_dac.c ****   __HAL_UNLOCK(hdac);
1207:Drivers/STM32F4xx_HAL_Driver/Src/stm32f4xx_hal_dac.c ****   return status;
1208:Drivers/STM32F4xx_HAL_Driver/Src/stm32f4xx_hal_dac.c **** }
1209:Drivers/STM32F4xx_HAL_Driver/Src/stm32f4xx_hal_dac.c **** #endif /* USE_HAL_DAC_REGISTER_CALLBACKS */
1210:Drivers/STM32F4xx_HAL_Driver/Src/stm32f4xx_hal_dac.c **** 
1211:Drivers/STM32F4xx_HAL_Driver/Src/stm32f4xx_hal_dac.c **** /**
1212:Drivers/STM32F4xx_HAL_Driver/Src/stm32f4xx_hal_dac.c ****   * @}
1213:Drivers/STM32F4xx_HAL_Driver/Src/stm32f4xx_hal_dac.c ****   */
1214:Drivers/STM32F4xx_HAL_Driver/Src/stm32f4xx_hal_dac.c **** 
1215:Drivers/STM32F4xx_HAL_Driver/Src/stm32f4xx_hal_dac.c **** /**
1216:Drivers/STM32F4xx_HAL_Driver/Src/stm32f4xx_hal_dac.c ****   * @}
1217:Drivers/STM32F4xx_HAL_Driver/Src/stm32f4xx_hal_dac.c ****   */
1218:Drivers/STM32F4xx_HAL_Driver/Src/stm32f4xx_hal_dac.c **** 
1219:Drivers/STM32F4xx_HAL_Driver/Src/stm32f4xx_hal_dac.c **** /** @addtogroup DAC_Private_Functions
1220:Drivers/STM32F4xx_HAL_Driver/Src/stm32f4xx_hal_dac.c ****   * @{
1221:Drivers/STM32F4xx_HAL_Driver/Src/stm32f4xx_hal_dac.c ****   */
1222:Drivers/STM32F4xx_HAL_Driver/Src/stm32f4xx_hal_dac.c **** 
1223:Drivers/STM32F4xx_HAL_Driver/Src/stm32f4xx_hal_dac.c **** /**
1224:Drivers/STM32F4xx_HAL_Driver/Src/stm32f4xx_hal_dac.c ****   * @brief  DMA conversion complete callback. 
1225:Drivers/STM32F4xx_HAL_Driver/Src/stm32f4xx_hal_dac.c ****   * @param  hdma pointer to a DMA_HandleTypeDef structure that contains
1226:Drivers/STM32F4xx_HAL_Driver/Src/stm32f4xx_hal_dac.c ****   *                the configuration information for the specified DMA module.
ARM GAS  /tmp/ccSfSgjJ.s 			page 38


1227:Drivers/STM32F4xx_HAL_Driver/Src/stm32f4xx_hal_dac.c ****   * @retval None
1228:Drivers/STM32F4xx_HAL_Driver/Src/stm32f4xx_hal_dac.c ****   */
1229:Drivers/STM32F4xx_HAL_Driver/Src/stm32f4xx_hal_dac.c **** static void DAC_DMAConvCpltCh1(DMA_HandleTypeDef *hdma)   
1230:Drivers/STM32F4xx_HAL_Driver/Src/stm32f4xx_hal_dac.c **** {
 795              		.loc 1 1230 1 is_stmt 1 view -0
 796              		.cfi_startproc
 797              		@ args = 0, pretend = 0, frame = 0
 798              		@ frame_needed = 0, uses_anonymous_args = 0
 799              		.loc 1 1230 1 is_stmt 0 view .LVU228
 800 0000 10B5     		push	{r4, lr}
 801              	.LCFI12:
 802              		.cfi_def_cfa_offset 8
 803              		.cfi_offset 4, -8
 804              		.cfi_offset 14, -4
1231:Drivers/STM32F4xx_HAL_Driver/Src/stm32f4xx_hal_dac.c ****   DAC_HandleTypeDef* hdac = ( DAC_HandleTypeDef* )((DMA_HandleTypeDef* )hdma)->Parent;
 805              		.loc 1 1231 3 is_stmt 1 view .LVU229
 806              		.loc 1 1231 22 is_stmt 0 view .LVU230
 807 0002 846B     		ldr	r4, [r0, #56]
 808              	.LVL68:
1232:Drivers/STM32F4xx_HAL_Driver/Src/stm32f4xx_hal_dac.c ****   
1233:Drivers/STM32F4xx_HAL_Driver/Src/stm32f4xx_hal_dac.c **** #if (USE_HAL_DAC_REGISTER_CALLBACKS == 1)
1234:Drivers/STM32F4xx_HAL_Driver/Src/stm32f4xx_hal_dac.c ****   hdac->ConvCpltCallbackCh1(hdac);
1235:Drivers/STM32F4xx_HAL_Driver/Src/stm32f4xx_hal_dac.c **** #else
1236:Drivers/STM32F4xx_HAL_Driver/Src/stm32f4xx_hal_dac.c ****   HAL_DAC_ConvCpltCallbackCh1(hdac); 
 809              		.loc 1 1236 3 is_stmt 1 view .LVU231
 810 0004 2046     		mov	r0, r4
 811              	.LVL69:
 812              		.loc 1 1236 3 is_stmt 0 view .LVU232
 813 0006 FFF7FEFF 		bl	HAL_DAC_ConvCpltCallbackCh1
 814              	.LVL70:
1237:Drivers/STM32F4xx_HAL_Driver/Src/stm32f4xx_hal_dac.c **** #endif /* USE_HAL_DAC_REGISTER_CALLBACKS */
1238:Drivers/STM32F4xx_HAL_Driver/Src/stm32f4xx_hal_dac.c ****   
1239:Drivers/STM32F4xx_HAL_Driver/Src/stm32f4xx_hal_dac.c ****   hdac->State= HAL_DAC_STATE_READY;
 815              		.loc 1 1239 3 is_stmt 1 view .LVU233
 816              		.loc 1 1239 14 is_stmt 0 view .LVU234
 817 000a 0123     		movs	r3, #1
 818 000c 2371     		strb	r3, [r4, #4]
1240:Drivers/STM32F4xx_HAL_Driver/Src/stm32f4xx_hal_dac.c **** }
 819              		.loc 1 1240 1 view .LVU235
 820 000e 10BD     		pop	{r4, pc}
 821              		.loc 1 1240 1 view .LVU236
 822              		.cfi_endproc
 823              	.LFE148:
 825              		.section	.text.HAL_DAC_ConvHalfCpltCallbackCh1,"ax",%progbits
 826              		.align	1
 827              		.weak	HAL_DAC_ConvHalfCpltCallbackCh1
 828              		.syntax unified
 829              		.thumb
 830              		.thumb_func
 831              		.fpu fpv4-sp-d16
 833              	HAL_DAC_ConvHalfCpltCallbackCh1:
 834              	.LVL71:
 835              	.LFB141:
 781:Drivers/STM32F4xx_HAL_Driver/Src/stm32f4xx_hal_dac.c ****   /* Prevent unused argument(s) compilation warning */
 836              		.loc 1 781 1 is_stmt 1 view -0
 837              		.cfi_startproc
 838              		@ args = 0, pretend = 0, frame = 0
ARM GAS  /tmp/ccSfSgjJ.s 			page 39


 839              		@ frame_needed = 0, uses_anonymous_args = 0
 840              		@ link register save eliminated.
 783:Drivers/STM32F4xx_HAL_Driver/Src/stm32f4xx_hal_dac.c ****   /* NOTE : This function Should not be modified, when the callback is needed,
 841              		.loc 1 783 3 view .LVU238
 787:Drivers/STM32F4xx_HAL_Driver/Src/stm32f4xx_hal_dac.c **** 
 842              		.loc 1 787 1 is_stmt 0 view .LVU239
 843 0000 7047     		bx	lr
 844              		.cfi_endproc
 845              	.LFE141:
 847              		.section	.text.DAC_DMAHalfConvCpltCh1,"ax",%progbits
 848              		.align	1
 849              		.syntax unified
 850              		.thumb
 851              		.thumb_func
 852              		.fpu fpv4-sp-d16
 854              	DAC_DMAHalfConvCpltCh1:
 855              	.LVL72:
 856              	.LFB149:
1241:Drivers/STM32F4xx_HAL_Driver/Src/stm32f4xx_hal_dac.c **** 
1242:Drivers/STM32F4xx_HAL_Driver/Src/stm32f4xx_hal_dac.c **** /**
1243:Drivers/STM32F4xx_HAL_Driver/Src/stm32f4xx_hal_dac.c ****   * @brief  DMA half transfer complete callback. 
1244:Drivers/STM32F4xx_HAL_Driver/Src/stm32f4xx_hal_dac.c ****   * @param  hdma pointer to a DMA_HandleTypeDef structure that contains
1245:Drivers/STM32F4xx_HAL_Driver/Src/stm32f4xx_hal_dac.c ****   *                the configuration information for the specified DMA module.
1246:Drivers/STM32F4xx_HAL_Driver/Src/stm32f4xx_hal_dac.c ****   * @retval None
1247:Drivers/STM32F4xx_HAL_Driver/Src/stm32f4xx_hal_dac.c ****   */
1248:Drivers/STM32F4xx_HAL_Driver/Src/stm32f4xx_hal_dac.c **** static void DAC_DMAHalfConvCpltCh1(DMA_HandleTypeDef *hdma)   
1249:Drivers/STM32F4xx_HAL_Driver/Src/stm32f4xx_hal_dac.c **** {
 857              		.loc 1 1249 1 is_stmt 1 view -0
 858              		.cfi_startproc
 859              		@ args = 0, pretend = 0, frame = 0
 860              		@ frame_needed = 0, uses_anonymous_args = 0
 861              		.loc 1 1249 1 is_stmt 0 view .LVU241
 862 0000 08B5     		push	{r3, lr}
 863              	.LCFI13:
 864              		.cfi_def_cfa_offset 8
 865              		.cfi_offset 3, -8
 866              		.cfi_offset 14, -4
1250:Drivers/STM32F4xx_HAL_Driver/Src/stm32f4xx_hal_dac.c ****     DAC_HandleTypeDef* hdac = ( DAC_HandleTypeDef* )((DMA_HandleTypeDef* )hdma)->Parent;
 867              		.loc 1 1250 5 is_stmt 1 view .LVU242
 868              	.LVL73:
1251:Drivers/STM32F4xx_HAL_Driver/Src/stm32f4xx_hal_dac.c ****     /* Conversion complete callback */
1252:Drivers/STM32F4xx_HAL_Driver/Src/stm32f4xx_hal_dac.c **** #if (USE_HAL_DAC_REGISTER_CALLBACKS == 1)
1253:Drivers/STM32F4xx_HAL_Driver/Src/stm32f4xx_hal_dac.c ****   hdac->ConvHalfCpltCallbackCh1(hdac);
1254:Drivers/STM32F4xx_HAL_Driver/Src/stm32f4xx_hal_dac.c **** #else
1255:Drivers/STM32F4xx_HAL_Driver/Src/stm32f4xx_hal_dac.c ****     HAL_DAC_ConvHalfCpltCallbackCh1(hdac); 
 869              		.loc 1 1255 5 view .LVU243
 870 0002 806B     		ldr	r0, [r0, #56]
 871              	.LVL74:
 872              		.loc 1 1255 5 is_stmt 0 view .LVU244
 873 0004 FFF7FEFF 		bl	HAL_DAC_ConvHalfCpltCallbackCh1
 874              	.LVL75:
1256:Drivers/STM32F4xx_HAL_Driver/Src/stm32f4xx_hal_dac.c **** #endif  /* USE_HAL_DAC_REGISTER_CALLBACKS */
1257:Drivers/STM32F4xx_HAL_Driver/Src/stm32f4xx_hal_dac.c **** }
 875              		.loc 1 1257 1 view .LVU245
 876 0008 08BD     		pop	{r3, pc}
 877              		.cfi_endproc
 878              	.LFE149:
ARM GAS  /tmp/ccSfSgjJ.s 			page 40


 880              		.section	.text.HAL_DAC_ErrorCallbackCh1,"ax",%progbits
 881              		.align	1
 882              		.weak	HAL_DAC_ErrorCallbackCh1
 883              		.syntax unified
 884              		.thumb
 885              		.thumb_func
 886              		.fpu fpv4-sp-d16
 888              	HAL_DAC_ErrorCallbackCh1:
 889              	.LVL76:
 890              	.LFB142:
 796:Drivers/STM32F4xx_HAL_Driver/Src/stm32f4xx_hal_dac.c ****   /* Prevent unused argument(s) compilation warning */
 891              		.loc 1 796 1 is_stmt 1 view -0
 892              		.cfi_startproc
 893              		@ args = 0, pretend = 0, frame = 0
 894              		@ frame_needed = 0, uses_anonymous_args = 0
 895              		@ link register save eliminated.
 798:Drivers/STM32F4xx_HAL_Driver/Src/stm32f4xx_hal_dac.c ****   /* NOTE : This function Should not be modified, when the callback is needed,
 896              		.loc 1 798 3 view .LVU247
 802:Drivers/STM32F4xx_HAL_Driver/Src/stm32f4xx_hal_dac.c **** 
 897              		.loc 1 802 1 is_stmt 0 view .LVU248
 898 0000 7047     		bx	lr
 899              		.cfi_endproc
 900              	.LFE142:
 902              		.section	.text.DAC_DMAErrorCh1,"ax",%progbits
 903              		.align	1
 904              		.syntax unified
 905              		.thumb
 906              		.thumb_func
 907              		.fpu fpv4-sp-d16
 909              	DAC_DMAErrorCh1:
 910              	.LVL77:
 911              	.LFB150:
1258:Drivers/STM32F4xx_HAL_Driver/Src/stm32f4xx_hal_dac.c **** 
1259:Drivers/STM32F4xx_HAL_Driver/Src/stm32f4xx_hal_dac.c **** /**
1260:Drivers/STM32F4xx_HAL_Driver/Src/stm32f4xx_hal_dac.c ****   * @brief  DMA error callback 
1261:Drivers/STM32F4xx_HAL_Driver/Src/stm32f4xx_hal_dac.c ****   * @param  hdma pointer to a DMA_HandleTypeDef structure that contains
1262:Drivers/STM32F4xx_HAL_Driver/Src/stm32f4xx_hal_dac.c ****   *                the configuration information for the specified DMA module.
1263:Drivers/STM32F4xx_HAL_Driver/Src/stm32f4xx_hal_dac.c ****   * @retval None
1264:Drivers/STM32F4xx_HAL_Driver/Src/stm32f4xx_hal_dac.c ****   */
1265:Drivers/STM32F4xx_HAL_Driver/Src/stm32f4xx_hal_dac.c **** static void DAC_DMAErrorCh1(DMA_HandleTypeDef *hdma)   
1266:Drivers/STM32F4xx_HAL_Driver/Src/stm32f4xx_hal_dac.c **** {
 912              		.loc 1 1266 1 is_stmt 1 view -0
 913              		.cfi_startproc
 914              		@ args = 0, pretend = 0, frame = 0
 915              		@ frame_needed = 0, uses_anonymous_args = 0
 916              		.loc 1 1266 1 is_stmt 0 view .LVU250
 917 0000 10B5     		push	{r4, lr}
 918              	.LCFI14:
 919              		.cfi_def_cfa_offset 8
 920              		.cfi_offset 4, -8
 921              		.cfi_offset 14, -4
1267:Drivers/STM32F4xx_HAL_Driver/Src/stm32f4xx_hal_dac.c ****   DAC_HandleTypeDef* hdac = ( DAC_HandleTypeDef* )((DMA_HandleTypeDef* )hdma)->Parent;
 922              		.loc 1 1267 3 is_stmt 1 view .LVU251
 923              		.loc 1 1267 22 is_stmt 0 view .LVU252
 924 0002 846B     		ldr	r4, [r0, #56]
 925              	.LVL78:
1268:Drivers/STM32F4xx_HAL_Driver/Src/stm32f4xx_hal_dac.c ****     
ARM GAS  /tmp/ccSfSgjJ.s 			page 41


1269:Drivers/STM32F4xx_HAL_Driver/Src/stm32f4xx_hal_dac.c ****   /* Set DAC error code to DMA error */
1270:Drivers/STM32F4xx_HAL_Driver/Src/stm32f4xx_hal_dac.c ****   hdac->ErrorCode |= HAL_DAC_ERROR_DMA;
 926              		.loc 1 1270 3 is_stmt 1 view .LVU253
 927              		.loc 1 1270 19 is_stmt 0 view .LVU254
 928 0004 2369     		ldr	r3, [r4, #16]
 929 0006 43F00403 		orr	r3, r3, #4
 930 000a 2361     		str	r3, [r4, #16]
1271:Drivers/STM32F4xx_HAL_Driver/Src/stm32f4xx_hal_dac.c ****     
1272:Drivers/STM32F4xx_HAL_Driver/Src/stm32f4xx_hal_dac.c **** #if (USE_HAL_DAC_REGISTER_CALLBACKS == 1)
1273:Drivers/STM32F4xx_HAL_Driver/Src/stm32f4xx_hal_dac.c ****   hdac->ErrorCallbackCh1(hdac);
1274:Drivers/STM32F4xx_HAL_Driver/Src/stm32f4xx_hal_dac.c **** #else
1275:Drivers/STM32F4xx_HAL_Driver/Src/stm32f4xx_hal_dac.c ****   HAL_DAC_ErrorCallbackCh1(hdac); 
 931              		.loc 1 1275 3 is_stmt 1 view .LVU255
 932 000c 2046     		mov	r0, r4
 933              	.LVL79:
 934              		.loc 1 1275 3 is_stmt 0 view .LVU256
 935 000e FFF7FEFF 		bl	HAL_DAC_ErrorCallbackCh1
 936              	.LVL80:
1276:Drivers/STM32F4xx_HAL_Driver/Src/stm32f4xx_hal_dac.c **** #endif /* USE_HAL_DAC_REGISTER_CALLBACKS */
1277:Drivers/STM32F4xx_HAL_Driver/Src/stm32f4xx_hal_dac.c ****     
1278:Drivers/STM32F4xx_HAL_Driver/Src/stm32f4xx_hal_dac.c ****   hdac->State= HAL_DAC_STATE_READY;
 937              		.loc 1 1278 3 is_stmt 1 view .LVU257
 938              		.loc 1 1278 14 is_stmt 0 view .LVU258
 939 0012 0123     		movs	r3, #1
 940 0014 2371     		strb	r3, [r4, #4]
1279:Drivers/STM32F4xx_HAL_Driver/Src/stm32f4xx_hal_dac.c **** }
 941              		.loc 1 1279 1 view .LVU259
 942 0016 10BD     		pop	{r4, pc}
 943              		.loc 1 1279 1 view .LVU260
 944              		.cfi_endproc
 945              	.LFE150:
 947              		.section	.text.HAL_DAC_DMAUnderrunCallbackCh1,"ax",%progbits
 948              		.align	1
 949              		.weak	HAL_DAC_DMAUnderrunCallbackCh1
 950              		.syntax unified
 951              		.thumb
 952              		.thumb_func
 953              		.fpu fpv4-sp-d16
 955              	HAL_DAC_DMAUnderrunCallbackCh1:
 956              	.LVL81:
 957              	.LFB143:
 811:Drivers/STM32F4xx_HAL_Driver/Src/stm32f4xx_hal_dac.c ****   /* Prevent unused argument(s) compilation warning */
 958              		.loc 1 811 1 is_stmt 1 view -0
 959              		.cfi_startproc
 960              		@ args = 0, pretend = 0, frame = 0
 961              		@ frame_needed = 0, uses_anonymous_args = 0
 962              		@ link register save eliminated.
 813:Drivers/STM32F4xx_HAL_Driver/Src/stm32f4xx_hal_dac.c ****   /* NOTE : This function Should not be modified, when the callback is needed,
 963              		.loc 1 813 3 view .LVU262
 817:Drivers/STM32F4xx_HAL_Driver/Src/stm32f4xx_hal_dac.c **** 
 964              		.loc 1 817 1 is_stmt 0 view .LVU263
 965 0000 7047     		bx	lr
 966              		.cfi_endproc
 967              	.LFE143:
 969              		.section	.text.HAL_DAC_IRQHandler,"ax",%progbits
 970              		.align	1
 971              		.global	HAL_DAC_IRQHandler
ARM GAS  /tmp/ccSfSgjJ.s 			page 42


 972              		.syntax unified
 973              		.thumb
 974              		.thumb_func
 975              		.fpu fpv4-sp-d16
 977              	HAL_DAC_IRQHandler:
 978              	.LVL82:
 979              	.LFB139:
 712:Drivers/STM32F4xx_HAL_Driver/Src/stm32f4xx_hal_dac.c ****   /* Check underrun channel 1 flag */
 980              		.loc 1 712 1 is_stmt 1 view -0
 981              		.cfi_startproc
 982              		@ args = 0, pretend = 0, frame = 0
 983              		@ frame_needed = 0, uses_anonymous_args = 0
 712:Drivers/STM32F4xx_HAL_Driver/Src/stm32f4xx_hal_dac.c ****   /* Check underrun channel 1 flag */
 984              		.loc 1 712 1 is_stmt 0 view .LVU265
 985 0000 10B5     		push	{r4, lr}
 986              	.LCFI15:
 987              		.cfi_def_cfa_offset 8
 988              		.cfi_offset 4, -8
 989              		.cfi_offset 14, -4
 990 0002 0446     		mov	r4, r0
 714:Drivers/STM32F4xx_HAL_Driver/Src/stm32f4xx_hal_dac.c ****   {
 991              		.loc 1 714 3 is_stmt 1 view .LVU266
 714:Drivers/STM32F4xx_HAL_Driver/Src/stm32f4xx_hal_dac.c ****   {
 992              		.loc 1 714 6 is_stmt 0 view .LVU267
 993 0004 0368     		ldr	r3, [r0]
 994 0006 5A6B     		ldr	r2, [r3, #52]
 714:Drivers/STM32F4xx_HAL_Driver/Src/stm32f4xx_hal_dac.c ****   {
 995              		.loc 1 714 5 view .LVU268
 996 0008 12F4005F 		tst	r2, #8192
 997 000c 05D1     		bne	.L72
 998              	.LVL83:
 999              	.L69:
 736:Drivers/STM32F4xx_HAL_Driver/Src/stm32f4xx_hal_dac.c ****   {
 1000              		.loc 1 736 3 is_stmt 1 view .LVU269
 736:Drivers/STM32F4xx_HAL_Driver/Src/stm32f4xx_hal_dac.c ****   {
 1001              		.loc 1 736 6 is_stmt 0 view .LVU270
 1002 000e 2368     		ldr	r3, [r4]
 1003 0010 5A6B     		ldr	r2, [r3, #52]
 736:Drivers/STM32F4xx_HAL_Driver/Src/stm32f4xx_hal_dac.c ****   {
 1004              		.loc 1 736 5 view .LVU271
 1005 0012 12F0005F 		tst	r2, #536870912
 1006 0016 11D1     		bne	.L73
 1007              	.L68:
 757:Drivers/STM32F4xx_HAL_Driver/Src/stm32f4xx_hal_dac.c **** 
 1008              		.loc 1 757 1 view .LVU272
 1009 0018 10BD     		pop	{r4, pc}
 1010              	.LVL84:
 1011              	.L72:
 717:Drivers/STM32F4xx_HAL_Driver/Src/stm32f4xx_hal_dac.c ****     
 1012              		.loc 1 717 5 is_stmt 1 view .LVU273
 717:Drivers/STM32F4xx_HAL_Driver/Src/stm32f4xx_hal_dac.c ****     
 1013              		.loc 1 717 17 is_stmt 0 view .LVU274
 1014 001a 0422     		movs	r2, #4
 1015 001c 0271     		strb	r2, [r0, #4]
 720:Drivers/STM32F4xx_HAL_Driver/Src/stm32f4xx_hal_dac.c ****     
 1016              		.loc 1 720 5 is_stmt 1 view .LVU275
 720:Drivers/STM32F4xx_HAL_Driver/Src/stm32f4xx_hal_dac.c ****     
ARM GAS  /tmp/ccSfSgjJ.s 			page 43


 1017              		.loc 1 720 21 is_stmt 0 view .LVU276
 1018 001e 0269     		ldr	r2, [r0, #16]
 1019 0020 42F00102 		orr	r2, r2, #1
 1020 0024 0261     		str	r2, [r0, #16]
 723:Drivers/STM32F4xx_HAL_Driver/Src/stm32f4xx_hal_dac.c ****     
 1021              		.loc 1 723 5 is_stmt 1 view .LVU277
 1022 0026 4FF40052 		mov	r2, #8192
 1023 002a 5A63     		str	r2, [r3, #52]
 726:Drivers/STM32F4xx_HAL_Driver/Src/stm32f4xx_hal_dac.c ****     
 1024              		.loc 1 726 5 view .LVU278
 726:Drivers/STM32F4xx_HAL_Driver/Src/stm32f4xx_hal_dac.c ****     
 1025              		.loc 1 726 9 is_stmt 0 view .LVU279
 1026 002c 0268     		ldr	r2, [r0]
 726:Drivers/STM32F4xx_HAL_Driver/Src/stm32f4xx_hal_dac.c ****     
 1027              		.loc 1 726 24 view .LVU280
 1028 002e 1368     		ldr	r3, [r2]
 1029 0030 23F48053 		bic	r3, r3, #4096
 1030 0034 1360     		str	r3, [r2]
 732:Drivers/STM32F4xx_HAL_Driver/Src/stm32f4xx_hal_dac.c **** #endif /* USE_HAL_DAC_REGISTER_CALLBACKS */
 1031              		.loc 1 732 5 is_stmt 1 view .LVU281
 1032 0036 FFF7FEFF 		bl	HAL_DAC_DMAUnderrunCallbackCh1
 1033              	.LVL85:
 732:Drivers/STM32F4xx_HAL_Driver/Src/stm32f4xx_hal_dac.c **** #endif /* USE_HAL_DAC_REGISTER_CALLBACKS */
 1034              		.loc 1 732 5 is_stmt 0 view .LVU282
 1035 003a E8E7     		b	.L69
 1036              	.L73:
 739:Drivers/STM32F4xx_HAL_Driver/Src/stm32f4xx_hal_dac.c ****     
 1037              		.loc 1 739 5 is_stmt 1 view .LVU283
 739:Drivers/STM32F4xx_HAL_Driver/Src/stm32f4xx_hal_dac.c ****     
 1038              		.loc 1 739 17 is_stmt 0 view .LVU284
 1039 003c 0422     		movs	r2, #4
 1040 003e 2271     		strb	r2, [r4, #4]
 742:Drivers/STM32F4xx_HAL_Driver/Src/stm32f4xx_hal_dac.c ****     
 1041              		.loc 1 742 5 is_stmt 1 view .LVU285
 742:Drivers/STM32F4xx_HAL_Driver/Src/stm32f4xx_hal_dac.c ****     
 1042              		.loc 1 742 21 is_stmt 0 view .LVU286
 1043 0040 2269     		ldr	r2, [r4, #16]
 1044 0042 42F00202 		orr	r2, r2, #2
 1045 0046 2261     		str	r2, [r4, #16]
 745:Drivers/STM32F4xx_HAL_Driver/Src/stm32f4xx_hal_dac.c ****     
 1046              		.loc 1 745 5 is_stmt 1 view .LVU287
 1047 0048 4FF00052 		mov	r2, #536870912
 1048 004c 5A63     		str	r2, [r3, #52]
 748:Drivers/STM32F4xx_HAL_Driver/Src/stm32f4xx_hal_dac.c ****     
 1049              		.loc 1 748 5 view .LVU288
 748:Drivers/STM32F4xx_HAL_Driver/Src/stm32f4xx_hal_dac.c ****     
 1050              		.loc 1 748 9 is_stmt 0 view .LVU289
 1051 004e 2268     		ldr	r2, [r4]
 748:Drivers/STM32F4xx_HAL_Driver/Src/stm32f4xx_hal_dac.c ****     
 1052              		.loc 1 748 24 view .LVU290
 1053 0050 1368     		ldr	r3, [r2]
 1054 0052 23F08053 		bic	r3, r3, #268435456
 1055 0056 1360     		str	r3, [r2]
 754:Drivers/STM32F4xx_HAL_Driver/Src/stm32f4xx_hal_dac.c **** #endif /* USE_HAL_DAC_REGISTER_CALLBACKS */
 1056              		.loc 1 754 5 is_stmt 1 view .LVU291
 1057 0058 2046     		mov	r0, r4
 1058 005a FFF7FEFF 		bl	HAL_DACEx_DMAUnderrunCallbackCh2
ARM GAS  /tmp/ccSfSgjJ.s 			page 44


 1059              	.LVL86:
 757:Drivers/STM32F4xx_HAL_Driver/Src/stm32f4xx_hal_dac.c **** 
 1060              		.loc 1 757 1 is_stmt 0 view .LVU292
 1061 005e DBE7     		b	.L68
 1062              		.cfi_endproc
 1063              	.LFE139:
 1065              		.section	.text.HAL_DAC_ConfigChannel,"ax",%progbits
 1066              		.align	1
 1067              		.global	HAL_DAC_ConfigChannel
 1068              		.syntax unified
 1069              		.thumb
 1070              		.thumb_func
 1071              		.fpu fpv4-sp-d16
 1073              	HAL_DAC_ConfigChannel:
 1074              	.LVL87:
 1075              	.LFB144:
 850:Drivers/STM32F4xx_HAL_Driver/Src/stm32f4xx_hal_dac.c ****   uint32_t tmpreg1 = 0U, tmpreg2 = 0U;
 1076              		.loc 1 850 1 is_stmt 1 view -0
 1077              		.cfi_startproc
 1078              		@ args = 0, pretend = 0, frame = 0
 1079              		@ frame_needed = 0, uses_anonymous_args = 0
 1080              		@ link register save eliminated.
 851:Drivers/STM32F4xx_HAL_Driver/Src/stm32f4xx_hal_dac.c **** 
 1081              		.loc 1 851 3 view .LVU294
 854:Drivers/STM32F4xx_HAL_Driver/Src/stm32f4xx_hal_dac.c ****   assert_param(IS_DAC_OUTPUT_BUFFER_STATE(sConfig->DAC_OutputBuffer));
 1082              		.loc 1 854 3 view .LVU295
 855:Drivers/STM32F4xx_HAL_Driver/Src/stm32f4xx_hal_dac.c ****   assert_param(IS_DAC_CHANNEL(Channel));
 1083              		.loc 1 855 3 view .LVU296
 856:Drivers/STM32F4xx_HAL_Driver/Src/stm32f4xx_hal_dac.c ****   
 1084              		.loc 1 856 3 view .LVU297
 859:Drivers/STM32F4xx_HAL_Driver/Src/stm32f4xx_hal_dac.c ****   
 1085              		.loc 1 859 3 view .LVU298
 859:Drivers/STM32F4xx_HAL_Driver/Src/stm32f4xx_hal_dac.c ****   
 1086              		.loc 1 859 3 view .LVU299
 1087 0000 4379     		ldrb	r3, [r0, #5]	@ zero_extendqisi2
 1088 0002 012B     		cmp	r3, #1
 1089 0004 1FD0     		beq	.L76
 850:Drivers/STM32F4xx_HAL_Driver/Src/stm32f4xx_hal_dac.c ****   uint32_t tmpreg1 = 0U, tmpreg2 = 0U;
 1090              		.loc 1 850 1 is_stmt 0 discriminator 2 view .LVU300
 1091 0006 70B4     		push	{r4, r5, r6}
 1092              	.LCFI16:
 1093              		.cfi_def_cfa_offset 12
 1094              		.cfi_offset 4, -12
 1095              		.cfi_offset 5, -8
 1096              		.cfi_offset 6, -4
 859:Drivers/STM32F4xx_HAL_Driver/Src/stm32f4xx_hal_dac.c ****   
 1097              		.loc 1 859 3 is_stmt 1 discriminator 2 view .LVU301
 1098 0008 0125     		movs	r5, #1
 1099 000a 4571     		strb	r5, [r0, #5]
 862:Drivers/STM32F4xx_HAL_Driver/Src/stm32f4xx_hal_dac.c ****   
 1100              		.loc 1 862 3 discriminator 2 view .LVU302
 862:Drivers/STM32F4xx_HAL_Driver/Src/stm32f4xx_hal_dac.c ****   
 1101              		.loc 1 862 15 is_stmt 0 discriminator 2 view .LVU303
 1102 000c 0223     		movs	r3, #2
 1103 000e 0371     		strb	r3, [r0, #4]
 865:Drivers/STM32F4xx_HAL_Driver/Src/stm32f4xx_hal_dac.c ****   /* Clear BOFFx, TENx, TSELx, WAVEx and MAMPx bits */
 1104              		.loc 1 865 3 is_stmt 1 discriminator 2 view .LVU304
ARM GAS  /tmp/ccSfSgjJ.s 			page 45


 865:Drivers/STM32F4xx_HAL_Driver/Src/stm32f4xx_hal_dac.c ****   /* Clear BOFFx, TENx, TSELx, WAVEx and MAMPx bits */
 1105              		.loc 1 865 17 is_stmt 0 discriminator 2 view .LVU305
 1106 0010 0668     		ldr	r6, [r0]
 865:Drivers/STM32F4xx_HAL_Driver/Src/stm32f4xx_hal_dac.c ****   /* Clear BOFFx, TENx, TSELx, WAVEx and MAMPx bits */
 1107              		.loc 1 865 11 discriminator 2 view .LVU306
 1108 0012 3368     		ldr	r3, [r6]
 1109              	.LVL88:
 867:Drivers/STM32F4xx_HAL_Driver/Src/stm32f4xx_hal_dac.c ****   /* Configure for the selected DAC channel: buffer output, trigger */
 1110              		.loc 1 867 3 is_stmt 1 discriminator 2 view .LVU307
 867:Drivers/STM32F4xx_HAL_Driver/Src/stm32f4xx_hal_dac.c ****   /* Configure for the selected DAC channel: buffer output, trigger */
 1111              		.loc 1 867 102 is_stmt 0 discriminator 2 view .LVU308
 1112 0014 40F6FE74 		movw	r4, #4094
 1113 0018 9440     		lsls	r4, r4, r2
 867:Drivers/STM32F4xx_HAL_Driver/Src/stm32f4xx_hal_dac.c ****   /* Configure for the selected DAC channel: buffer output, trigger */
 1114              		.loc 1 867 11 discriminator 2 view .LVU309
 1115 001a 23EA0404 		bic	r4, r3, r4
 1116              	.LVL89:
 871:Drivers/STM32F4xx_HAL_Driver/Src/stm32f4xx_hal_dac.c ****   /* Calculate CR register value depending on DAC_Channel */
 1117              		.loc 1 871 3 is_stmt 1 discriminator 2 view .LVU310
 871:Drivers/STM32F4xx_HAL_Driver/Src/stm32f4xx_hal_dac.c ****   /* Calculate CR register value depending on DAC_Channel */
 1118              		.loc 1 871 21 is_stmt 0 discriminator 2 view .LVU311
 1119 001e 0B68     		ldr	r3, [r1]
 871:Drivers/STM32F4xx_HAL_Driver/Src/stm32f4xx_hal_dac.c ****   /* Calculate CR register value depending on DAC_Channel */
 1120              		.loc 1 871 44 discriminator 2 view .LVU312
 1121 0020 4968     		ldr	r1, [r1, #4]
 1122              	.LVL90:
 871:Drivers/STM32F4xx_HAL_Driver/Src/stm32f4xx_hal_dac.c ****   /* Calculate CR register value depending on DAC_Channel */
 1123              		.loc 1 871 11 discriminator 2 view .LVU313
 1124 0022 0B43     		orrs	r3, r3, r1
 1125              	.LVL91:
 873:Drivers/STM32F4xx_HAL_Driver/Src/stm32f4xx_hal_dac.c ****   /* Write to DAC CR */
 1126              		.loc 1 873 3 is_stmt 1 discriminator 2 view .LVU314
 873:Drivers/STM32F4xx_HAL_Driver/Src/stm32f4xx_hal_dac.c ****   /* Write to DAC CR */
 1127              		.loc 1 873 22 is_stmt 0 discriminator 2 view .LVU315
 1128 0024 9340     		lsls	r3, r3, r2
 1129              	.LVL92:
 873:Drivers/STM32F4xx_HAL_Driver/Src/stm32f4xx_hal_dac.c ****   /* Write to DAC CR */
 1130              		.loc 1 873 11 discriminator 2 view .LVU316
 1131 0026 2343     		orrs	r3, r3, r4
 1132              	.LVL93:
 875:Drivers/STM32F4xx_HAL_Driver/Src/stm32f4xx_hal_dac.c ****   /* Disable wave generation */
 1133              		.loc 1 875 3 is_stmt 1 discriminator 2 view .LVU317
 875:Drivers/STM32F4xx_HAL_Driver/Src/stm32f4xx_hal_dac.c ****   /* Disable wave generation */
 1134              		.loc 1 875 22 is_stmt 0 discriminator 2 view .LVU318
 1135 0028 3360     		str	r3, [r6]
 1136              	.LVL94:
 877:Drivers/STM32F4xx_HAL_Driver/Src/stm32f4xx_hal_dac.c ****   
 1137              		.loc 1 877 3 is_stmt 1 discriminator 2 view .LVU319
 877:Drivers/STM32F4xx_HAL_Driver/Src/stm32f4xx_hal_dac.c ****   
 1138              		.loc 1 877 7 is_stmt 0 discriminator 2 view .LVU320
 1139 002a 0468     		ldr	r4, [r0]
 877:Drivers/STM32F4xx_HAL_Driver/Src/stm32f4xx_hal_dac.c ****   
 1140              		.loc 1 877 22 discriminator 2 view .LVU321
 1141 002c 2368     		ldr	r3, [r4]
 1142              	.LVL95:
 877:Drivers/STM32F4xx_HAL_Driver/Src/stm32f4xx_hal_dac.c ****   
 1143              		.loc 1 877 40 discriminator 2 view .LVU322
ARM GAS  /tmp/ccSfSgjJ.s 			page 46


 1144 002e C021     		movs	r1, #192
 1145 0030 01FA02F2 		lsl	r2, r1, r2
 1146              	.LVL96:
 877:Drivers/STM32F4xx_HAL_Driver/Src/stm32f4xx_hal_dac.c ****   
 1147              		.loc 1 877 22 discriminator 2 view .LVU323
 1148 0034 23EA0203 		bic	r3, r3, r2
 1149 0038 2360     		str	r3, [r4]
 1150              	.LVL97:
 880:Drivers/STM32F4xx_HAL_Driver/Src/stm32f4xx_hal_dac.c ****   
 1151              		.loc 1 880 3 is_stmt 1 discriminator 2 view .LVU324
 880:Drivers/STM32F4xx_HAL_Driver/Src/stm32f4xx_hal_dac.c ****   
 1152              		.loc 1 880 15 is_stmt 0 discriminator 2 view .LVU325
 1153 003a 0571     		strb	r5, [r0, #4]
 883:Drivers/STM32F4xx_HAL_Driver/Src/stm32f4xx_hal_dac.c ****   
 1154              		.loc 1 883 3 is_stmt 1 discriminator 2 view .LVU326
 883:Drivers/STM32F4xx_HAL_Driver/Src/stm32f4xx_hal_dac.c ****   
 1155              		.loc 1 883 3 discriminator 2 view .LVU327
 1156 003c 0023     		movs	r3, #0
 1157 003e 4371     		strb	r3, [r0, #5]
 886:Drivers/STM32F4xx_HAL_Driver/Src/stm32f4xx_hal_dac.c **** }
 1158              		.loc 1 886 3 discriminator 2 view .LVU328
 886:Drivers/STM32F4xx_HAL_Driver/Src/stm32f4xx_hal_dac.c **** }
 1159              		.loc 1 886 10 is_stmt 0 discriminator 2 view .LVU329
 1160 0040 1846     		mov	r0, r3
 1161              	.LVL98:
 887:Drivers/STM32F4xx_HAL_Driver/Src/stm32f4xx_hal_dac.c **** 
 1162              		.loc 1 887 1 discriminator 2 view .LVU330
 1163 0042 70BC     		pop	{r4, r5, r6}
 1164              	.LCFI17:
 1165              		.cfi_restore 6
 1166              		.cfi_restore 5
 1167              		.cfi_restore 4
 1168              		.cfi_def_cfa_offset 0
 1169 0044 7047     		bx	lr
 1170              	.LVL99:
 1171              	.L76:
 859:Drivers/STM32F4xx_HAL_Driver/Src/stm32f4xx_hal_dac.c ****   
 1172              		.loc 1 859 3 view .LVU331
 1173 0046 0220     		movs	r0, #2
 1174              	.LVL100:
 887:Drivers/STM32F4xx_HAL_Driver/Src/stm32f4xx_hal_dac.c **** 
 1175              		.loc 1 887 1 view .LVU332
 1176 0048 7047     		bx	lr
 1177              		.cfi_endproc
 1178              	.LFE144:
 1180              		.section	.text.HAL_DAC_SetValue,"ax",%progbits
 1181              		.align	1
 1182              		.global	HAL_DAC_SetValue
 1183              		.syntax unified
 1184              		.thumb
 1185              		.thumb_func
 1186              		.fpu fpv4-sp-d16
 1188              	HAL_DAC_SetValue:
 1189              	.LVL101:
 1190              	.LFB145:
 906:Drivers/STM32F4xx_HAL_Driver/Src/stm32f4xx_hal_dac.c ****   __IO uint32_t tmp = 0U;
 1191              		.loc 1 906 1 is_stmt 1 view -0
ARM GAS  /tmp/ccSfSgjJ.s 			page 47


 1192              		.cfi_startproc
 1193              		@ args = 0, pretend = 0, frame = 8
 1194              		@ frame_needed = 0, uses_anonymous_args = 0
 1195              		@ link register save eliminated.
 906:Drivers/STM32F4xx_HAL_Driver/Src/stm32f4xx_hal_dac.c ****   __IO uint32_t tmp = 0U;
 1196              		.loc 1 906 1 is_stmt 0 view .LVU334
 1197 0000 10B4     		push	{r4}
 1198              	.LCFI18:
 1199              		.cfi_def_cfa_offset 4
 1200              		.cfi_offset 4, -4
 1201 0002 83B0     		sub	sp, sp, #12
 1202              	.LCFI19:
 1203              		.cfi_def_cfa_offset 16
 907:Drivers/STM32F4xx_HAL_Driver/Src/stm32f4xx_hal_dac.c ****   
 1204              		.loc 1 907 3 is_stmt 1 view .LVU335
 907:Drivers/STM32F4xx_HAL_Driver/Src/stm32f4xx_hal_dac.c ****   
 1205              		.loc 1 907 17 is_stmt 0 view .LVU336
 1206 0004 0024     		movs	r4, #0
 1207 0006 0194     		str	r4, [sp, #4]
 910:Drivers/STM32F4xx_HAL_Driver/Src/stm32f4xx_hal_dac.c ****   assert_param(IS_DAC_ALIGN(Alignment));
 1208              		.loc 1 910 3 is_stmt 1 view .LVU337
 911:Drivers/STM32F4xx_HAL_Driver/Src/stm32f4xx_hal_dac.c ****   assert_param(IS_DAC_DATA(Data));
 1209              		.loc 1 911 3 view .LVU338
 912:Drivers/STM32F4xx_HAL_Driver/Src/stm32f4xx_hal_dac.c ****   
 1210              		.loc 1 912 3 view .LVU339
 914:Drivers/STM32F4xx_HAL_Driver/Src/stm32f4xx_hal_dac.c ****   if(Channel == DAC_CHANNEL_1)
 1211              		.loc 1 914 3 view .LVU340
 914:Drivers/STM32F4xx_HAL_Driver/Src/stm32f4xx_hal_dac.c ****   if(Channel == DAC_CHANNEL_1)
 1212              		.loc 1 914 23 is_stmt 0 view .LVU341
 1213 0008 0068     		ldr	r0, [r0]
 1214              	.LVL102:
 914:Drivers/STM32F4xx_HAL_Driver/Src/stm32f4xx_hal_dac.c ****   if(Channel == DAC_CHANNEL_1)
 1215              		.loc 1 914 7 view .LVU342
 1216 000a 0190     		str	r0, [sp, #4]
 915:Drivers/STM32F4xx_HAL_Driver/Src/stm32f4xx_hal_dac.c ****   {
 1217              		.loc 1 915 3 is_stmt 1 view .LVU343
 915:Drivers/STM32F4xx_HAL_Driver/Src/stm32f4xx_hal_dac.c ****   {
 1218              		.loc 1 915 5 is_stmt 0 view .LVU344
 1219 000c 51B9     		cbnz	r1, .L82
 917:Drivers/STM32F4xx_HAL_Driver/Src/stm32f4xx_hal_dac.c ****   }
 1220              		.loc 1 917 5 is_stmt 1 view .LVU345
 917:Drivers/STM32F4xx_HAL_Driver/Src/stm32f4xx_hal_dac.c ****   }
 1221              		.loc 1 917 9 is_stmt 0 view .LVU346
 1222 000e 0199     		ldr	r1, [sp, #4]
 1223              	.LVL103:
 917:Drivers/STM32F4xx_HAL_Driver/Src/stm32f4xx_hal_dac.c ****   }
 1224              		.loc 1 917 9 view .LVU347
 1225 0010 1144     		add	r1, r1, r2
 1226 0012 0831     		adds	r1, r1, #8
 1227 0014 0191     		str	r1, [sp, #4]
 1228              	.L83:
 925:Drivers/STM32F4xx_HAL_Driver/Src/stm32f4xx_hal_dac.c ****   
 1229              		.loc 1 925 3 is_stmt 1 view .LVU348
 925:Drivers/STM32F4xx_HAL_Driver/Src/stm32f4xx_hal_dac.c ****   
 1230              		.loc 1 925 4 is_stmt 0 view .LVU349
 1231 0016 019A     		ldr	r2, [sp, #4]
 1232              	.LVL104:
ARM GAS  /tmp/ccSfSgjJ.s 			page 48


 925:Drivers/STM32F4xx_HAL_Driver/Src/stm32f4xx_hal_dac.c ****   
 1233              		.loc 1 925 26 view .LVU350
 1234 0018 1360     		str	r3, [r2]
 928:Drivers/STM32F4xx_HAL_Driver/Src/stm32f4xx_hal_dac.c **** }
 1235              		.loc 1 928 3 is_stmt 1 view .LVU351
 929:Drivers/STM32F4xx_HAL_Driver/Src/stm32f4xx_hal_dac.c **** 
 1236              		.loc 1 929 1 is_stmt 0 view .LVU352
 1237 001a 0020     		movs	r0, #0
 1238 001c 03B0     		add	sp, sp, #12
 1239              	.LCFI20:
 1240              		.cfi_remember_state
 1241              		.cfi_def_cfa_offset 4
 1242              		@ sp needed
 1243 001e 5DF8044B 		ldr	r4, [sp], #4
 1244              	.LCFI21:
 1245              		.cfi_restore 4
 1246              		.cfi_def_cfa_offset 0
 1247 0022 7047     		bx	lr
 1248              	.LVL105:
 1249              	.L82:
 1250              	.LCFI22:
 1251              		.cfi_restore_state
 921:Drivers/STM32F4xx_HAL_Driver/Src/stm32f4xx_hal_dac.c ****   }
 1252              		.loc 1 921 5 is_stmt 1 view .LVU353
 921:Drivers/STM32F4xx_HAL_Driver/Src/stm32f4xx_hal_dac.c ****   }
 1253              		.loc 1 921 9 is_stmt 0 view .LVU354
 1254 0024 0199     		ldr	r1, [sp, #4]
 1255              	.LVL106:
 921:Drivers/STM32F4xx_HAL_Driver/Src/stm32f4xx_hal_dac.c ****   }
 1256              		.loc 1 921 9 view .LVU355
 1257 0026 1144     		add	r1, r1, r2
 1258 0028 1431     		adds	r1, r1, #20
 1259 002a 0191     		str	r1, [sp, #4]
 1260 002c F3E7     		b	.L83
 1261              		.cfi_endproc
 1262              	.LFE145:
 1264              		.section	.text.HAL_DAC_GetState,"ax",%progbits
 1265              		.align	1
 1266              		.global	HAL_DAC_GetState
 1267              		.syntax unified
 1268              		.thumb
 1269              		.thumb_func
 1270              		.fpu fpv4-sp-d16
 1272              	HAL_DAC_GetState:
 1273              	.LVL107:
 1274              	.LFB146:
 958:Drivers/STM32F4xx_HAL_Driver/Src/stm32f4xx_hal_dac.c ****   /* Return DAC state */
 1275              		.loc 1 958 1 is_stmt 1 view -0
 1276              		.cfi_startproc
 1277              		@ args = 0, pretend = 0, frame = 0
 1278              		@ frame_needed = 0, uses_anonymous_args = 0
 1279              		@ link register save eliminated.
 960:Drivers/STM32F4xx_HAL_Driver/Src/stm32f4xx_hal_dac.c **** }
 1280              		.loc 1 960 3 view .LVU357
 960:Drivers/STM32F4xx_HAL_Driver/Src/stm32f4xx_hal_dac.c **** }
 1281              		.loc 1 960 14 is_stmt 0 view .LVU358
 1282 0000 0079     		ldrb	r0, [r0, #4]	@ zero_extendqisi2
ARM GAS  /tmp/ccSfSgjJ.s 			page 49


 1283              	.LVL108:
 961:Drivers/STM32F4xx_HAL_Driver/Src/stm32f4xx_hal_dac.c **** 
 1284              		.loc 1 961 1 view .LVU359
 1285 0002 7047     		bx	lr
 1286              		.cfi_endproc
 1287              	.LFE146:
 1289              		.section	.text.HAL_DAC_GetError,"ax",%progbits
 1290              		.align	1
 1291              		.global	HAL_DAC_GetError
 1292              		.syntax unified
 1293              		.thumb
 1294              		.thumb_func
 1295              		.fpu fpv4-sp-d16
 1297              	HAL_DAC_GetError:
 1298              	.LVL109:
 1299              	.LFB147:
 971:Drivers/STM32F4xx_HAL_Driver/Src/stm32f4xx_hal_dac.c ****   return hdac->ErrorCode;
 1300              		.loc 1 971 1 is_stmt 1 view -0
 1301              		.cfi_startproc
 1302              		@ args = 0, pretend = 0, frame = 0
 1303              		@ frame_needed = 0, uses_anonymous_args = 0
 1304              		@ link register save eliminated.
 972:Drivers/STM32F4xx_HAL_Driver/Src/stm32f4xx_hal_dac.c **** }
 1305              		.loc 1 972 3 view .LVU361
 972:Drivers/STM32F4xx_HAL_Driver/Src/stm32f4xx_hal_dac.c **** }
 1306              		.loc 1 972 14 is_stmt 0 view .LVU362
 1307 0000 0069     		ldr	r0, [r0, #16]
 1308              	.LVL110:
 973:Drivers/STM32F4xx_HAL_Driver/Src/stm32f4xx_hal_dac.c **** 
 1309              		.loc 1 973 1 view .LVU363
 1310 0002 7047     		bx	lr
 1311              		.cfi_endproc
 1312              	.LFE147:
 1314              		.text
 1315              	.Letext0:
 1316              		.file 2 "/home/onur/STM32Toolchain/gcc-arm/arm-none-eabi/include/machine/_default_types.h"
 1317              		.file 3 "/home/onur/STM32Toolchain/gcc-arm/arm-none-eabi/include/sys/_stdint.h"
 1318              		.file 4 "Drivers/CMSIS/Include/core_cm4.h"
 1319              		.file 5 "Drivers/CMSIS/Device/ST/STM32F4xx/Include/system_stm32f4xx.h"
 1320              		.file 6 "Drivers/CMSIS/Device/ST/STM32F4xx/Include/stm32f407xx.h"
 1321              		.file 7 "Drivers/STM32F4xx_HAL_Driver/Inc/stm32f4xx_hal_def.h"
 1322              		.file 8 "Drivers/STM32F4xx_HAL_Driver/Inc/stm32f4xx_hal_dma.h"
 1323              		.file 9 "Drivers/STM32F4xx_HAL_Driver/Inc/stm32f4xx_hal_dac.h"
 1324              		.file 10 "Drivers/STM32F4xx_HAL_Driver/Inc/stm32f4xx_hal_dac_ex.h"
ARM GAS  /tmp/ccSfSgjJ.s 			page 50

